(dp0
I1667
(lp1
(I2067
I-1
tp2
asI3973
(lp3
(I3991
I-1
tp4
asI3974
(lp5
(I3991
I-1
tp6
asI3975
(lp7
(I3921
I-1
tp8
a(I3991
I-1
tp9
asI3976
(lp10
(I3991
I-1
tp11
asI3977
(lp12
(I3921
I-1
tp13
a(I3991
I-1
tp14
asI3978
(lp15
(I3922
I-1
tp16
asI3979
(lp17
(I3925
I-1
tp18
asI3980
(lp19
(I3991
I-1
tp20
asI3992
(lp21
(I3991
I-1
tp22
asI3971
(lp23
(I3991
I-1
tp24
asI3988
(lp25
(I3986
I-1
tp26
asI2069
(lp27
(I2092
I-1
tp28
asI2071
(lp29
(I2069
I-1
tp30
a(I2074
I-1
tp31
a(I2075
I-1
tp32
a(I2083
I-1
tp33
asI2072
(lp34
(I2092
I-1
tp35
asI2073
(lp36
(I2072
I-1
tp37
a(I2080
I-1
tp38
a(I2084
I-1
tp39
asI2074
(lp40
(I2092
I-1
tp41
asI2075
(lp42
(I2092
I-1
tp43
asI2076
(lp44
(I2092
I-1
tp45
asI2077
(lp46
(I2076
I-1
tp47
a(I2085
I-1
tp48
a(I2090
I-1
tp49
asI2078
(lp50
(I2092
I-1
tp51
asI2079
(lp52
(I2078
I-1
tp53
a(I2081
I-1
tp54
a(I2082
I-1
tp55
a(I2086
I-1
tp56
a(I2089
I-1
tp57
asI2080
(lp58
(I2092
I-1
tp59
asI2081
(lp60
(I2092
I-1
tp61
asI2082
(lp62
(I2092
I-1
tp63
asI2083
(lp64
(I2092
I-1
tp65
asI2084
(lp66
(I2092
I-1
tp67
asI2085
(lp68
(I2092
I-1
tp69
asI2086
(lp70
(I2092
I-1
tp71
asI2087
(lp72
(I2092
I-1
tp73
asI2088
(lp74
(I2087
I-1
tp75
asI2089
(lp76
(I2092
I-1
tp77
asI2090
(lp78
(I2092
I-1
tp79
asI2013
(lp80
(I4049
I-1
tp81
a(I4053
I-1
tp82
a(I4062
I-1
tp83
asI3935
(lp84
(I3934
I-1
tp85
asI1980
(lp86
(I2067
I-1
tp87
asI3917
(lp88
(I3921
I-1
tp89
a(I3974
I-1
tp90
a(I3975
I-1
tp91
a(I3977
I-1
tp92
a(I3980
I-1
tp93
asI3918
(lp94
(I3925
I-1
tp95
asI4049
(lp96
(I4051
I-1
tp97
asI3923
(lp98
(I3922
I-1
tp99
asI3924
(lp100
(I3922
I-1
tp101
a(I3984
I-1
tp102
asI4054
(lp103
(I2013
I-1
tp104
a(I2013
I-1
tp105
asI2007
(lp106
(I2013
I-1
tp107
a(I2013
I-1
tp108
a(I2013
I-1
tp109
a(I2013
I-1
tp110
a(I4053
I-1
tp111
a(I4062
I-1
tp112
asI2008
(lp113
(I2013
I-1
tp114
a(I2013
I-1
tp115
a(I2013
I-1
tp116
asI2010
(lp117
(I2037
I-1
tp118
asI4133
(lp119
(I3922
I-1
tp120
asI4063
(lp121
(I2013
I-1
tp122
a(I2013
I-1
tp123
asI1889
(lp124
(I2067
I-1
tp125
asI3946
(lp126
(I2012
I-1
tp127
a(I4049
I-1
tp128
asI2030
(lp129
(I2013
I-1
tp130
a(I2013
I-1
tp131
a(I2013
I-1
tp132
asI1522
(lp133
(I2067
I-1
tp134
as.