(dp0
I0
(lp1
I2
asI1
(lp2
sI2
(lp3
I2006
asI6
(lp4
sI8
(lp5
sI10
(lp6
sI11
(lp7
sI12
(lp8
sI13
(lp9
sI14
(lp10
sI15
(lp11
sI16
(lp12
sI17
(lp13
sI18
(lp14
sI19
(lp15
sI20
(lp16
sI21
(lp17
sI22
(lp18
sI23
(lp19
sI24
(lp20
sI25
(lp21
sI26
(lp22
sI27
(lp23
sI28
(lp24
sI29
(lp25
sI30
(lp26
sI31
(lp27
sI32
(lp28
sI33
(lp29
sI34
(lp30
sI35
(lp31
sI36
(lp32
sI37
(lp33
sI38
(lp34
sI39
(lp35
sI40
(lp36
sI41
(lp37
sI42
(lp38
sI43
(lp39
sI44
(lp40
sI45
(lp41
sI46
(lp42
sI47
(lp43
sI48
(lp44
sI49
(lp45
sI50
(lp46
sI51
(lp47
sI52
(lp48
sI53
(lp49
sI54
(lp50
sI55
(lp51
sI56
(lp52
sI57
(lp53
sI58
(lp54
sI59
(lp55
sI60
(lp56
sI61
(lp57
sI62
(lp58
sI63
(lp59
sI64
(lp60
sI65
(lp61
sI66
(lp62
sI67
(lp63
sI68
(lp64
sI69
(lp65
sI70
(lp66
sI71
(lp67
sI72
(lp68
sI73
(lp69
sI74
(lp70
sI75
(lp71
sI76
(lp72
sI77
(lp73
sI78
(lp74
sI79
(lp75
sI80
(lp76
sI81
(lp77
sI82
(lp78
sI83
(lp79
sI84
(lp80
sI85
(lp81
sI86
(lp82
sI87
(lp83
sI88
(lp84
sI89
(lp85
sI90
(lp86
sI91
(lp87
sI92
(lp88
sI93
(lp89
sI94
(lp90
sI95
(lp91
sI96
(lp92
sI97
(lp93
sI98
(lp94
sI99
(lp95
sI100
(lp96
sI101
(lp97
sI102
(lp98
sI103
(lp99
sI104
(lp100
sI105
(lp101
sI106
(lp102
sI107
(lp103
sI108
(lp104
sI109
(lp105
sI110
(lp106
sI111
(lp107
sI112
(lp108
sI113
(lp109
sI114
(lp110
sI115
(lp111
sI116
(lp112
sI117
(lp113
sI118
(lp114
sI119
(lp115
sI120
(lp116
sI121
(lp117
sI122
(lp118
sI123
(lp119
sI124
(lp120
sI125
(lp121
sI126
(lp122
sI127
(lp123
sI128
(lp124
sI129
(lp125
sI130
(lp126
sI131
(lp127
sI132
(lp128
sI133
(lp129
sI134
(lp130
sI135
(lp131
sI136
(lp132
sI137
(lp133
sI138
(lp134
sI139
(lp135
sI140
(lp136
sI141
(lp137
sI142
(lp138
sI143
(lp139
sI144
(lp140
sI145
(lp141
sI146
(lp142
sI147
(lp143
sI148
(lp144
sI149
(lp145
sI150
(lp146
sI151
(lp147
sI152
(lp148
sI153
(lp149
sI154
(lp150
sI155
(lp151
sI156
(lp152
sI157
(lp153
sI158
(lp154
sI159
(lp155
sI160
(lp156
sI161
(lp157
sI162
(lp158
sI163
(lp159
sI164
(lp160
sI165
(lp161
sI166
(lp162
sI167
(lp163
sI168
(lp164
sI169
(lp165
sI170
(lp166
sI171
(lp167
sI172
(lp168
sI173
(lp169
sI174
(lp170
sI175
(lp171
sI176
(lp172
sI177
(lp173
sI178
(lp174
sI179
(lp175
sI180
(lp176
sI181
(lp177
sI182
(lp178
sI183
(lp179
sI184
(lp180
sI185
(lp181
sI186
(lp182
sI187
(lp183
sI188
(lp184
sI189
(lp185
sI190
(lp186
sI191
(lp187
sI192
(lp188
sI193
(lp189
sI194
(lp190
sI195
(lp191
sI196
(lp192
sI197
(lp193
sI198
(lp194
sI199
(lp195
sI200
(lp196
sI201
(lp197
sI202
(lp198
sI203
(lp199
sI204
(lp200
sI205
(lp201
sI206
(lp202
sI207
(lp203
sI208
(lp204
sI209
(lp205
sI210
(lp206
sI211
(lp207
sI212
(lp208
sI213
(lp209
sI214
(lp210
sI215
(lp211
sI216
(lp212
sI217
(lp213
sI218
(lp214
sI219
(lp215
sI220
(lp216
sI221
(lp217
sI222
(lp218
sI223
(lp219
sI224
(lp220
sI225
(lp221
sI226
(lp222
sI227
(lp223
sI228
(lp224
sI229
(lp225
sI230
(lp226
sI231
(lp227
sI232
(lp228
sI233
(lp229
sI234
(lp230
sI235
(lp231
sI236
(lp232
sI237
(lp233
sI238
(lp234
sI239
(lp235
sI240
(lp236
sI241
(lp237
sI242
(lp238
sI243
(lp239
sI244
(lp240
sI245
(lp241
sI246
(lp242
sI247
(lp243
sI248
(lp244
sI249
(lp245
sI250
(lp246
sI251
(lp247
sI252
(lp248
sI253
(lp249
sI254
(lp250
sI255
(lp251
sI256
(lp252
sI257
(lp253
sI258
(lp254
sI259
(lp255
sI260
(lp256
sI261
(lp257
sI262
(lp258
sI263
(lp259
sI264
(lp260
sI265
(lp261
sI266
(lp262
sI267
(lp263
sI268
(lp264
sI269
(lp265
sI270
(lp266
sI271
(lp267
sI272
(lp268
sI273
(lp269
sI274
(lp270
sI275
(lp271
sI276
(lp272
sI277
(lp273
sI278
(lp274
sI279
(lp275
sI280
(lp276
sI281
(lp277
sI282
(lp278
sI283
(lp279
sI284
(lp280
sI285
(lp281
sI286
(lp282
sI287
(lp283
sI288
(lp284
sI289
(lp285
sI290
(lp286
sI291
(lp287
sI292
(lp288
sI293
(lp289
sI294
(lp290
sI295
(lp291
sI296
(lp292
sI297
(lp293
sI298
(lp294
sI299
(lp295
sI300
(lp296
sI301
(lp297
sI302
(lp298
sI303
(lp299
sI304
(lp300
sI305
(lp301
sI306
(lp302
sI307
(lp303
sI308
(lp304
sI309
(lp305
sI310
(lp306
sI311
(lp307
sI312
(lp308
sI313
(lp309
sI314
(lp310
sI315
(lp311
sI316
(lp312
sI317
(lp313
sI318
(lp314
sI319
(lp315
sI320
(lp316
sI321
(lp317
sI322
(lp318
sI323
(lp319
sI324
(lp320
sI325
(lp321
sI326
(lp322
sI327
(lp323
sI328
(lp324
sI329
(lp325
sI330
(lp326
sI331
(lp327
sI332
(lp328
sI333
(lp329
sI334
(lp330
sI335
(lp331
sI336
(lp332
sI337
(lp333
sI338
(lp334
sI339
(lp335
sI340
(lp336
sI341
(lp337
sI342
(lp338
sI343
(lp339
sI344
(lp340
sI345
(lp341
sI346
(lp342
sI347
(lp343
sI348
(lp344
sI349
(lp345
sI350
(lp346
sI351
(lp347
sI352
(lp348
sI353
(lp349
sI354
(lp350
sI355
(lp351
sI356
(lp352
sI357
(lp353
sI358
(lp354
sI359
(lp355
sI360
(lp356
sI361
(lp357
sI362
(lp358
sI363
(lp359
sI364
(lp360
sI365
(lp361
sI366
(lp362
sI367
(lp363
sI368
(lp364
sI369
(lp365
sI370
(lp366
sI371
(lp367
sI372
(lp368
sI373
(lp369
sI374
(lp370
sI375
(lp371
sI376
(lp372
sI377
(lp373
sI378
(lp374
sI379
(lp375
sI380
(lp376
sI381
(lp377
sI382
(lp378
sI383
(lp379
sI384
(lp380
sI385
(lp381
sI386
(lp382
sI387
(lp383
sI388
(lp384
sI389
(lp385
sI390
(lp386
sI391
(lp387
sI392
(lp388
sI393
(lp389
sI394
(lp390
sI395
(lp391
sI396
(lp392
sI397
(lp393
sI398
(lp394
sI399
(lp395
sI400
(lp396
sI401
(lp397
sI402
(lp398
sI403
(lp399
sI404
(lp400
sI405
(lp401
sI406
(lp402
sI407
(lp403
sI408
(lp404
sI409
(lp405
sI410
(lp406
sI411
(lp407
sI412
(lp408
sI413
(lp409
sI414
(lp410
sI415
(lp411
sI416
(lp412
sI417
(lp413
sI418
(lp414
sI419
(lp415
sI420
(lp416
sI421
(lp417
sI422
(lp418
sI423
(lp419
sI424
(lp420
sI425
(lp421
sI426
(lp422
sI427
(lp423
sI428
(lp424
sI429
(lp425
sI430
(lp426
sI431
(lp427
sI432
(lp428
sI433
(lp429
sI434
(lp430
sI435
(lp431
sI436
(lp432
sI437
(lp433
sI438
(lp434
sI439
(lp435
sI440
(lp436
sI441
(lp437
sI442
(lp438
sI443
(lp439
sI444
(lp440
sI445
(lp441
sI446
(lp442
sI447
(lp443
sI448
(lp444
sI449
(lp445
sI450
(lp446
sI451
(lp447
sI452
(lp448
sI453
(lp449
sI454
(lp450
sI455
(lp451
sI456
(lp452
sI457
(lp453
sI458
(lp454
sI459
(lp455
sI460
(lp456
sI461
(lp457
sI462
(lp458
sI463
(lp459
sI464
(lp460
sI465
(lp461
sI466
(lp462
sI467
(lp463
sI468
(lp464
sI469
(lp465
sI470
(lp466
sI471
(lp467
sI472
(lp468
sI473
(lp469
sI474
(lp470
sI475
(lp471
sI476
(lp472
sI477
(lp473
sI478
(lp474
sI479
(lp475
sI480
(lp476
sI481
(lp477
sI482
(lp478
sI483
(lp479
sI484
(lp480
sI485
(lp481
sI486
(lp482
sI487
(lp483
sI488
(lp484
sI489
(lp485
sI490
(lp486
sI491
(lp487
sI492
(lp488
sI493
(lp489
sI494
(lp490
sI495
(lp491
sI496
(lp492
sI497
(lp493
sI498
(lp494
sI499
(lp495
sI500
(lp496
sI501
(lp497
sI502
(lp498
sI503
(lp499
sI504
(lp500
sI505
(lp501
sI506
(lp502
sI507
(lp503
sI508
(lp504
sI509
(lp505
sI510
(lp506
sI511
(lp507
sI512
(lp508
sI513
(lp509
sI514
(lp510
sI515
(lp511
sI516
(lp512
sI517
(lp513
sI518
(lp514
sI519
(lp515
sI520
(lp516
sI521
(lp517
sI522
(lp518
sI523
(lp519
sI524
(lp520
sI525
(lp521
sI526
(lp522
sI527
(lp523
sI528
(lp524
sI529
(lp525
sI530
(lp526
sI531
(lp527
sI532
(lp528
sI533
(lp529
sI534
(lp530
sI535
(lp531
sI536
(lp532
sI537
(lp533
sI538
(lp534
sI539
(lp535
sI540
(lp536
sI541
(lp537
sI542
(lp538
sI543
(lp539
sI544
(lp540
sI545
(lp541
sI546
(lp542
sI547
(lp543
sI548
(lp544
sI549
(lp545
sI550
(lp546
sI551
(lp547
sI552
(lp548
sI553
(lp549
sI554
(lp550
sI555
(lp551
sI556
(lp552
sI557
(lp553
sI558
(lp554
sI559
(lp555
sI560
(lp556
sI561
(lp557
sI562
(lp558
sI563
(lp559
sI564
(lp560
sI565
(lp561
sI566
(lp562
sI567
(lp563
sI568
(lp564
sI569
(lp565
sI570
(lp566
sI571
(lp567
sI572
(lp568
sI573
(lp569
sI574
(lp570
sI575
(lp571
sI576
(lp572
sI577
(lp573
sI578
(lp574
sI579
(lp575
sI580
(lp576
sI581
(lp577
sI582
(lp578
sI583
(lp579
sI584
(lp580
sI585
(lp581
sI586
(lp582
sI587
(lp583
sI588
(lp584
sI589
(lp585
sI590
(lp586
sI591
(lp587
sI592
(lp588
sI593
(lp589
sI594
(lp590
sI595
(lp591
sI596
(lp592
sI597
(lp593
sI598
(lp594
sI599
(lp595
sI600
(lp596
sI601
(lp597
sI602
(lp598
sI603
(lp599
sI604
(lp600
sI605
(lp601
sI606
(lp602
sI607
(lp603
sI608
(lp604
sI609
(lp605
sI610
(lp606
sI611
(lp607
sI612
(lp608
sI613
(lp609
sI614
(lp610
sI615
(lp611
sI616
(lp612
sI617
(lp613
sI618
(lp614
sI619
(lp615
sI620
(lp616
sI621
(lp617
sI622
(lp618
sI623
(lp619
sI624
(lp620
sI625
(lp621
sI626
(lp622
sI627
(lp623
sI628
(lp624
sI629
(lp625
sI630
(lp626
sI631
(lp627
sI632
(lp628
sI633
(lp629
sI634
(lp630
sI635
(lp631
sI636
(lp632
sI637
(lp633
sI638
(lp634
sI639
(lp635
sI640
(lp636
sI641
(lp637
sI642
(lp638
sI643
(lp639
sI644
(lp640
sI645
(lp641
sI646
(lp642
sI647
(lp643
sI648
(lp644
sI649
(lp645
sI650
(lp646
sI651
(lp647
sI652
(lp648
sI653
(lp649
sI654
(lp650
sI655
(lp651
sI656
(lp652
sI657
(lp653
sI658
(lp654
sI659
(lp655
sI660
(lp656
sI661
(lp657
sI662
(lp658
sI663
(lp659
sI664
(lp660
sI665
(lp661
sI666
(lp662
sI667
(lp663
sI668
(lp664
sI669
(lp665
sI670
(lp666
sI671
(lp667
sI672
(lp668
sI673
(lp669
sI674
(lp670
sI675
(lp671
sI676
(lp672
sI677
(lp673
sI678
(lp674
sI679
(lp675
sI680
(lp676
sI681
(lp677
sI682
(lp678
sI683
(lp679
sI684
(lp680
sI685
(lp681
sI686
(lp682
sI687
(lp683
sI688
(lp684
sI689
(lp685
sI690
(lp686
sI691
(lp687
sI692
(lp688
sI693
(lp689
sI694
(lp690
sI695
(lp691
sI696
(lp692
sI697
(lp693
sI698
(lp694
sI699
(lp695
sI700
(lp696
sI701
(lp697
sI702
(lp698
sI703
(lp699
sI704
(lp700
sI705
(lp701
sI706
(lp702
sI707
(lp703
sI708
(lp704
sI709
(lp705
sI710
(lp706
sI711
(lp707
sI712
(lp708
sI713
(lp709
sI714
(lp710
sI715
(lp711
sI716
(lp712
sI717
(lp713
sI718
(lp714
sI719
(lp715
sI720
(lp716
sI721
(lp717
sI722
(lp718
sI723
(lp719
sI724
(lp720
sI725
(lp721
sI726
(lp722
sI727
(lp723
sI728
(lp724
sI729
(lp725
sI730
(lp726
sI731
(lp727
sI732
(lp728
sI733
(lp729
sI734
(lp730
sI735
(lp731
sI736
(lp732
sI737
(lp733
sI738
(lp734
sI739
(lp735
sI740
(lp736
sI741
(lp737
sI742
(lp738
sI743
(lp739
sI744
(lp740
sI745
(lp741
sI746
(lp742
sI747
(lp743
sI748
(lp744
sI749
(lp745
sI750
(lp746
sI751
(lp747
sI752
(lp748
sI753
(lp749
sI754
(lp750
sI755
(lp751
sI756
(lp752
sI757
(lp753
sI758
(lp754
sI759
(lp755
sI760
(lp756
sI761
(lp757
sI762
(lp758
sI763
(lp759
sI764
(lp760
sI765
(lp761
sI766
(lp762
sI767
(lp763
sI768
(lp764
sI769
(lp765
sI770
(lp766
sI771
(lp767
sI772
(lp768
sI773
(lp769
sI774
(lp770
sI775
(lp771
sI776
(lp772
sI777
(lp773
sI778
(lp774
sI779
(lp775
sI780
(lp776
sI781
(lp777
sI782
(lp778
sI783
(lp779
sI784
(lp780
sI785
(lp781
sI786
(lp782
sI787
(lp783
sI788
(lp784
sI789
(lp785
sI790
(lp786
sI791
(lp787
sI792
(lp788
sI793
(lp789
sI794
(lp790
sI795
(lp791
sI796
(lp792
sI797
(lp793
sI798
(lp794
sI799
(lp795
sI800
(lp796
sI801
(lp797
sI802
(lp798
sI803
(lp799
sI804
(lp800
sI805
(lp801
sI806
(lp802
sI807
(lp803
sI808
(lp804
sI809
(lp805
sI810
(lp806
sI811
(lp807
sI812
(lp808
sI813
(lp809
sI814
(lp810
sI815
(lp811
sI816
(lp812
sI817
(lp813
sI818
(lp814
sI819
(lp815
sI820
(lp816
sI821
(lp817
sI822
(lp818
sI823
(lp819
sI824
(lp820
sI825
(lp821
sI826
(lp822
sI827
(lp823
sI828
(lp824
sI829
(lp825
sI830
(lp826
sI831
(lp827
sI832
(lp828
sI833
(lp829
sI834
(lp830
sI835
(lp831
sI836
(lp832
sI837
(lp833
sI838
(lp834
sI839
(lp835
sI840
(lp836
sI841
(lp837
sI842
(lp838
sI843
(lp839
sI844
(lp840
sI845
(lp841
sI846
(lp842
sI847
(lp843
sI848
(lp844
sI849
(lp845
sI850
(lp846
sI851
(lp847
sI852
(lp848
sI853
(lp849
sI854
(lp850
sI855
(lp851
sI856
(lp852
sI857
(lp853
sI858
(lp854
sI859
(lp855
sI860
(lp856
sI861
(lp857
sI862
(lp858
sI863
(lp859
sI864
(lp860
sI865
(lp861
sI866
(lp862
sI867
(lp863
sI868
(lp864
sI869
(lp865
sI870
(lp866
sI871
(lp867
sI872
(lp868
sI873
(lp869
sI874
(lp870
sI875
(lp871
sI876
(lp872
sI877
(lp873
sI878
(lp874
sI879
(lp875
sI880
(lp876
sI881
(lp877
sI882
(lp878
sI883
(lp879
sI884
(lp880
sI885
(lp881
sI886
(lp882
sI887
(lp883
sI888
(lp884
sI889
(lp885
sI890
(lp886
sI891
(lp887
sI892
(lp888
sI893
(lp889
sI894
(lp890
sI895
(lp891
sI896
(lp892
sI897
(lp893
sI898
(lp894
sI899
(lp895
sI900
(lp896
sI901
(lp897
sI902
(lp898
sI903
(lp899
sI904
(lp900
sI905
(lp901
sI906
(lp902
sI907
(lp903
sI908
(lp904
sI909
(lp905
sI910
(lp906
sI911
(lp907
sI912
(lp908
sI913
(lp909
sI914
(lp910
sI915
(lp911
sI916
(lp912
sI917
(lp913
sI918
(lp914
sI919
(lp915
sI920
(lp916
sI921
(lp917
sI922
(lp918
sI923
(lp919
sI924
(lp920
sI925
(lp921
sI926
(lp922
sI927
(lp923
sI928
(lp924
sI929
(lp925
sI930
(lp926
sI931
(lp927
sI932
(lp928
sI933
(lp929
sI934
(lp930
sI935
(lp931
sI936
(lp932
sI937
(lp933
sI938
(lp934
sI939
(lp935
sI940
(lp936
sI941
(lp937
sI942
(lp938
sI943
(lp939
sI944
(lp940
sI945
(lp941
sI946
(lp942
sI947
(lp943
sI948
(lp944
sI949
(lp945
sI950
(lp946
sI951
(lp947
sI952
(lp948
sI953
(lp949
sI954
(lp950
sI955
(lp951
sI956
(lp952
sI957
(lp953
sI958
(lp954
sI959
(lp955
sI960
(lp956
sI961
(lp957
sI962
(lp958
sI963
(lp959
sI964
(lp960
sI965
(lp961
sI966
(lp962
sI967
(lp963
sI968
(lp964
sI969
(lp965
sI970
(lp966
sI971
(lp967
sI972
(lp968
sI973
(lp969
sI974
(lp970
sI975
(lp971
sI976
(lp972
sI977
(lp973
sI978
(lp974
sI979
(lp975
sI980
(lp976
sI981
(lp977
sI982
(lp978
sI983
(lp979
sI984
(lp980
sI985
(lp981
sI986
(lp982
sI987
(lp983
sI988
(lp984
sI989
(lp985
sI990
(lp986
sI991
(lp987
sI992
(lp988
sI993
(lp989
sI994
(lp990
sI995
(lp991
sI996
(lp992
sI997
(lp993
sI998
(lp994
sI999
(lp995
sI1000
(lp996
sI1001
(lp997
sI1002
(lp998
sI1003
(lp999
sI1004
(lp1000
sI1005
(lp1001
sI1006
(lp1002
sI1007
(lp1003
sI1008
(lp1004
sI1009
(lp1005
sI1010
(lp1006
sI1011
(lp1007
sI1012
(lp1008
sI1013
(lp1009
sI1014
(lp1010
sI1015
(lp1011
sI1016
(lp1012
sI1017
(lp1013
sI1018
(lp1014
sI1019
(lp1015
sI1020
(lp1016
sI1021
(lp1017
sI1022
(lp1018
sI1023
(lp1019
sI1024
(lp1020
sI1025
(lp1021
sI1026
(lp1022
sI1027
(lp1023
sI1028
(lp1024
sI1029
(lp1025
sI1030
(lp1026
sI1031
(lp1027
sI1032
(lp1028
sI1033
(lp1029
sI1034
(lp1030
sI1035
(lp1031
sI1036
(lp1032
sI1037
(lp1033
sI1038
(lp1034
sI1039
(lp1035
sI1040
(lp1036
sI1041
(lp1037
sI1042
(lp1038
sI1043
(lp1039
sI1044
(lp1040
sI1045
(lp1041
sI1046
(lp1042
sI1047
(lp1043
sI1048
(lp1044
sI1049
(lp1045
sI1050
(lp1046
sI1051
(lp1047
sI1052
(lp1048
sI1053
(lp1049
sI1054
(lp1050
sI1055
(lp1051
sI1056
(lp1052
sI1057
(lp1053
sI1058
(lp1054
sI1059
(lp1055
sI1060
(lp1056
sI1061
(lp1057
sI1062
(lp1058
sI1063
(lp1059
sI1064
(lp1060
sI1065
(lp1061
sI1066
(lp1062
sI1067
(lp1063
sI1068
(lp1064
sI1069
(lp1065
sI1070
(lp1066
sI1071
(lp1067
sI1072
(lp1068
sI1073
(lp1069
sI1074
(lp1070
sI1075
(lp1071
sI1076
(lp1072
sI1077
(lp1073
sI1078
(lp1074
sI1079
(lp1075
sI1080
(lp1076
sI1081
(lp1077
sI1082
(lp1078
sI1083
(lp1079
sI1084
(lp1080
sI1085
(lp1081
sI1086
(lp1082
sI1087
(lp1083
sI1088
(lp1084
sI1089
(lp1085
sI1090
(lp1086
sI1091
(lp1087
sI1092
(lp1088
sI1093
(lp1089
sI1094
(lp1090
sI1095
(lp1091
sI1096
(lp1092
sI1097
(lp1093
sI1098
(lp1094
sI1099
(lp1095
sI1100
(lp1096
sI1101
(lp1097
sI1102
(lp1098
sI1103
(lp1099
sI1104
(lp1100
sI1105
(lp1101
sI1106
(lp1102
sI1107
(lp1103
sI1108
(lp1104
sI1109
(lp1105
sI1110
(lp1106
sI1111
(lp1107
sI1112
(lp1108
sI1113
(lp1109
sI1114
(lp1110
sI1115
(lp1111
sI1116
(lp1112
sI1117
(lp1113
sI1118
(lp1114
sI1119
(lp1115
sI1120
(lp1116
sI1121
(lp1117
sI1122
(lp1118
sI1123
(lp1119
sI1124
(lp1120
sI1125
(lp1121
sI1126
(lp1122
sI1127
(lp1123
sI1128
(lp1124
sI1129
(lp1125
sI1130
(lp1126
sI1131
(lp1127
sI1132
(lp1128
sI1133
(lp1129
sI1134
(lp1130
sI1135
(lp1131
sI1136
(lp1132
sI1137
(lp1133
sI1138
(lp1134
sI1139
(lp1135
sI1140
(lp1136
sI1141
(lp1137
sI1142
(lp1138
sI1143
(lp1139
sI1144
(lp1140
sI1145
(lp1141
sI1146
(lp1142
sI1147
(lp1143
sI1148
(lp1144
sI1149
(lp1145
sI1150
(lp1146
sI1151
(lp1147
sI1152
(lp1148
sI1153
(lp1149
sI1154
(lp1150
sI1155
(lp1151
sI1156
(lp1152
sI1157
(lp1153
sI1158
(lp1154
sI1159
(lp1155
sI1160
(lp1156
sI1161
(lp1157
sI1162
(lp1158
sI1163
(lp1159
sI1164
(lp1160
sI1165
(lp1161
sI1166
(lp1162
sI1167
(lp1163
sI1168
(lp1164
sI1169
(lp1165
sI1170
(lp1166
sI1171
(lp1167
sI1172
(lp1168
sI1173
(lp1169
sI1174
(lp1170
sI1175
(lp1171
sI1176
(lp1172
sI1177
(lp1173
sI1178
(lp1174
sI1179
(lp1175
sI1180
(lp1176
sI1181
(lp1177
sI1182
(lp1178
sI1183
(lp1179
sI1184
(lp1180
sI1185
(lp1181
sI1186
(lp1182
sI1187
(lp1183
sI1188
(lp1184
sI1189
(lp1185
sI1190
(lp1186
sI1191
(lp1187
sI1192
(lp1188
sI1193
(lp1189
sI1194
(lp1190
sI1195
(lp1191
sI1196
(lp1192
sI1197
(lp1193
sI1198
(lp1194
sI1199
(lp1195
sI1200
(lp1196
sI1201
(lp1197
sI1202
(lp1198
sI1203
(lp1199
sI1204
(lp1200
sI1205
(lp1201
sI1206
(lp1202
sI1207
(lp1203
sI1208
(lp1204
sI1209
(lp1205
sI1210
(lp1206
sI1211
(lp1207
sI1212
(lp1208
sI1213
(lp1209
sI1214
(lp1210
sI1215
(lp1211
sI1216
(lp1212
sI1217
(lp1213
sI1218
(lp1214
sI1219
(lp1215
sI1220
(lp1216
sI1221
(lp1217
sI1222
(lp1218
sI1223
(lp1219
sI1224
(lp1220
sI1225
(lp1221
sI1226
(lp1222
sI1227
(lp1223
sI1228
(lp1224
sI1229
(lp1225
sI1230
(lp1226
sI1231
(lp1227
sI1232
(lp1228
sI1233
(lp1229
sI1234
(lp1230
sI1235
(lp1231
sI1236
(lp1232
sI1237
(lp1233
sI1238
(lp1234
sI1239
(lp1235
sI1240
(lp1236
sI1241
(lp1237
sI1242
(lp1238
sI1243
(lp1239
sI1244
(lp1240
sI1245
(lp1241
sI1246
(lp1242
sI1247
(lp1243
sI1248
(lp1244
sI1249
(lp1245
sI1250
(lp1246
sI1251
(lp1247
sI1252
(lp1248
sI1253
(lp1249
sI1254
(lp1250
sI1255
(lp1251
sI1256
(lp1252
sI1257
(lp1253
sI1258
(lp1254
sI1259
(lp1255
sI1260
(lp1256
sI1261
(lp1257
sI1262
(lp1258
sI1263
(lp1259
sI1264
(lp1260
sI1265
(lp1261
sI1266
(lp1262
sI1267
(lp1263
sI1268
(lp1264
sI1269
(lp1265
sI1270
(lp1266
sI1271
(lp1267
sI1272
(lp1268
sI1273
(lp1269
sI1274
(lp1270
sI1275
(lp1271
sI1276
(lp1272
sI1277
(lp1273
sI1278
(lp1274
sI1279
(lp1275
sI1280
(lp1276
sI1281
(lp1277
sI1282
(lp1278
sI1283
(lp1279
sI1284
(lp1280
sI1285
(lp1281
sI1286
(lp1282
sI1287
(lp1283
sI1288
(lp1284
sI1289
(lp1285
sI1290
(lp1286
sI1291
(lp1287
sI1292
(lp1288
sI1293
(lp1289
sI1294
(lp1290
sI1295
(lp1291
sI1296
(lp1292
sI1297
(lp1293
sI1298
(lp1294
sI1299
(lp1295
sI1300
(lp1296
sI1301
(lp1297
sI1302
(lp1298
sI1303
(lp1299
sI1304
(lp1300
sI1305
(lp1301
sI1306
(lp1302
sI1307
(lp1303
sI1308
(lp1304
sI1309
(lp1305
sI1310
(lp1306
sI1311
(lp1307
sI1312
(lp1308
sI1313
(lp1309
sI1314
(lp1310
sI1315
(lp1311
sI1316
(lp1312
sI1317
(lp1313
sI1318
(lp1314
sI1319
(lp1315
sI1320
(lp1316
sI1321
(lp1317
sI1322
(lp1318
sI1323
(lp1319
sI1324
(lp1320
sI1325
(lp1321
sI1326
(lp1322
sI1327
(lp1323
sI1328
(lp1324
sI1329
(lp1325
sI1330
(lp1326
sI1331
(lp1327
sI1332
(lp1328
sI1333
(lp1329
sI1334
(lp1330
sI1335
(lp1331
sI1336
(lp1332
sI1337
(lp1333
sI1338
(lp1334
sI1339
(lp1335
sI1340
(lp1336
sI1341
(lp1337
sI1342
(lp1338
sI1343
(lp1339
sI1344
(lp1340
sI1345
(lp1341
sI1346
(lp1342
sI1347
(lp1343
sI1348
(lp1344
sI1349
(lp1345
sI1350
(lp1346
sI1351
(lp1347
sI1352
(lp1348
sI1353
(lp1349
sI1354
(lp1350
sI1355
(lp1351
sI1356
(lp1352
sI1357
(lp1353
sI1358
(lp1354
sI1359
(lp1355
sI1360
(lp1356
sI1361
(lp1357
sI1362
(lp1358
sI1363
(lp1359
sI1364
(lp1360
sI1365
(lp1361
sI1366
(lp1362
sI1367
(lp1363
sI1368
(lp1364
sI1369
(lp1365
sI1370
(lp1366
sI1371
(lp1367
sI1372
(lp1368
sI1373
(lp1369
sI1374
(lp1370
sI1375
(lp1371
sI1376
(lp1372
sI1377
(lp1373
sI1378
(lp1374
sI1379
(lp1375
sI1380
(lp1376
sI1381
(lp1377
sI1382
(lp1378
sI1383
(lp1379
sI1384
(lp1380
sI1385
(lp1381
sI1386
(lp1382
sI1387
(lp1383
sI1388
(lp1384
sI1389
(lp1385
sI1390
(lp1386
sI1391
(lp1387
sI1392
(lp1388
sI1393
(lp1389
sI1394
(lp1390
sI1395
(lp1391
sI1396
(lp1392
sI1397
(lp1393
sI1398
(lp1394
sI1399
(lp1395
sI1400
(lp1396
sI1401
(lp1397
sI1402
(lp1398
sI1403
(lp1399
sI1404
(lp1400
sI1405
(lp1401
sI1406
(lp1402
sI1407
(lp1403
sI1408
(lp1404
sI1409
(lp1405
sI1410
(lp1406
sI1411
(lp1407
sI1412
(lp1408
sI1413
(lp1409
sI1414
(lp1410
sI1415
(lp1411
sI1416
(lp1412
sI1417
(lp1413
sI1418
(lp1414
sI1419
(lp1415
sI1420
(lp1416
sI1421
(lp1417
sI1422
(lp1418
sI1423
(lp1419
sI1424
(lp1420
sI1425
(lp1421
sI1426
(lp1422
sI1427
(lp1423
sI1428
(lp1424
sI1429
(lp1425
sI1430
(lp1426
sI1431
(lp1427
sI1432
(lp1428
sI1433
(lp1429
sI1434
(lp1430
sI1435
(lp1431
sI1436
(lp1432
sI1437
(lp1433
sI1438
(lp1434
sI1439
(lp1435
sI1440
(lp1436
sI1441
(lp1437
sI1442
(lp1438
sI1443
(lp1439
sI1444
(lp1440
sI1445
(lp1441
sI1446
(lp1442
sI1447
(lp1443
sI1448
(lp1444
sI1449
(lp1445
sI1450
(lp1446
sI1451
(lp1447
sI1452
(lp1448
sI1453
(lp1449
sI1454
(lp1450
sI1455
(lp1451
sI1456
(lp1452
sI1457
(lp1453
sI1458
(lp1454
sI1459
(lp1455
sI1460
(lp1456
sI1461
(lp1457
sI1462
(lp1458
sI1463
(lp1459
sI1464
(lp1460
sI1465
(lp1461
sI1466
(lp1462
sI1467
(lp1463
sI1468
(lp1464
sI1469
(lp1465
sI1470
(lp1466
sI1471
(lp1467
sI1472
(lp1468
sI1473
(lp1469
sI1474
(lp1470
sI1475
(lp1471
sI1476
(lp1472
sI1477
(lp1473
sI1478
(lp1474
sI1479
(lp1475
sI1480
(lp1476
sI1481
(lp1477
sI1482
(lp1478
sI1483
(lp1479
sI1485
(lp1480
sI1486
(lp1481
sI1488
(lp1482
sI1490
(lp1483
sI1492
(lp1484
sI1494
(lp1485
sI1496
(lp1486
sI1498
(lp1487
sI1500
(lp1488
sI1502
(lp1489
sI1504
(lp1490
sI1506
(lp1491
sI1509
(lp1492
sI1511
(lp1493
sI1513
(lp1494
sI1515
(lp1495
sI1518
(lp1496
sI1520
(lp1497
sI1522
(lp1498
sI1524
(lp1499
sI1526
(lp1500
sI1527
(lp1501
sI1528
(lp1502
sI1530
(lp1503
sI1532
(lp1504
sI1534
(lp1505
sI1536
(lp1506
sI1538
(lp1507
sI1540
(lp1508
sI1542
(lp1509
sI1544
(lp1510
sI1546
(lp1511
sI1548
(lp1512
sI1550
(lp1513
sI1553
(lp1514
sI1555
(lp1515
sI1557
(lp1516
sI1559
(lp1517
sI1560
(lp1518
sI1561
(lp1519
sI1564
(lp1520
sI1566
(lp1521
sI1568
(lp1522
sI1570
(lp1523
sI1572
(lp1524
sI1574
(lp1525
sI1576
(lp1526
sI1578
(lp1527
sI1580
(lp1528
sI1582
(lp1529
sI1584
(lp1530
sI1586
(lp1531
sI1588
(lp1532
sI1590
(lp1533
sI1592
(lp1534
sI1593
(lp1535
sI1595
(lp1536
sI1597
(lp1537
sI1599
(lp1538
sI1601
(lp1539
sI1603
(lp1540
sI1605
(lp1541
sI1607
(lp1542
sI1609
(lp1543
sI1611
(lp1544
sI1613
(lp1545
sI1615
(lp1546
sI1617
(lp1547
sI1619
(lp1548
sI1621
(lp1549
sI1623
(lp1550
sI1625
(lp1551
sI1627
(lp1552
sI1629
(lp1553
sI1631
(lp1554
sI1633
(lp1555
sI1635
(lp1556
sI1637
(lp1557
sI1639
(lp1558
sI1641
(lp1559
sI1643
(lp1560
sI1645
(lp1561
sI1647
(lp1562
sI1649
(lp1563
sI1651
(lp1564
sI1653
(lp1565
sI1655
(lp1566
sI1657
(lp1567
sI1659
(lp1568
sI1661
(lp1569
sI1663
(lp1570
sI1665
(lp1571
sI1667
(lp1572
sI1669
(lp1573
sI1671
(lp1574
sI1673
(lp1575
sI1675
(lp1576
sI1677
(lp1577
sI1679
(lp1578
sI1681
(lp1579
sI1683
(lp1580
sI1685
(lp1581
sI1687
(lp1582
sI1689
(lp1583
sI1691
(lp1584
sI1693
(lp1585
sI1695
(lp1586
sI1697
(lp1587
sI1699
(lp1588
sI1701
(lp1589
sI1703
(lp1590
sI1705
(lp1591
sI1707
(lp1592
sI1709
(lp1593
sI1711
(lp1594
sI1713
(lp1595
sI1715
(lp1596
sI1717
(lp1597
sI1719
(lp1598
sI1721
(lp1599
sI1723
(lp1600
sI1725
(lp1601
sI1727
(lp1602
sI1729
(lp1603
sI1731
(lp1604
sI1733
(lp1605
sI1735
(lp1606
sI1737
(lp1607
sI1739
(lp1608
sI1741
(lp1609
sI1743
(lp1610
sI1745
(lp1611
sI1747
(lp1612
sI1749
(lp1613
sI1751
(lp1614
sI1753
(lp1615
sI1755
(lp1616
sI1757
(lp1617
sI1759
(lp1618
sI1761
(lp1619
sI1763
(lp1620
sI1765
(lp1621
sI1767
(lp1622
sI1769
(lp1623
sI1771
(lp1624
sI1774
(lp1625
sI1776
(lp1626
sI1778
(lp1627
sI1780
(lp1628
sI1782
(lp1629
sI1784
(lp1630
sI1786
(lp1631
sI1788
(lp1632
sI1790
(lp1633
sI1792
(lp1634
sI1794
(lp1635
sI1796
(lp1636
sI1799
(lp1637
sI1801
(lp1638
sI1803
(lp1639
sI1805
(lp1640
sI1807
(lp1641
sI1809
(lp1642
sI1811
(lp1643
sI1813
(lp1644
sI1815
(lp1645
sI1817
(lp1646
sI1819
(lp1647
sI1821
(lp1648
sI1823
(lp1649
sI1825
(lp1650
sI1827
(lp1651
sI1829
(lp1652
sI1831
(lp1653
sI1833
(lp1654
sI1835
(lp1655
sI1837
(lp1656
sI1839
(lp1657
sI1841
(lp1658
sI1843
(lp1659
sI1845
(lp1660
sI1847
(lp1661
sI1849
(lp1662
sI1851
(lp1663
sI1853
(lp1664
sI1855
(lp1665
sI1857
(lp1666
sI1859
(lp1667
sI1861
(lp1668
sI1863
(lp1669
sI1865
(lp1670
sI1867
(lp1671
sI1869
(lp1672
sI1871
(lp1673
sI1873
(lp1674
sI1875
(lp1675
sI1877
(lp1676
sI1879
(lp1677
sI1881
(lp1678
sI1884
(lp1679
sI1886
(lp1680
sI1888
(lp1681
sI1889
(lp1682
sI1891
(lp1683
sI1893
(lp1684
sI1895
(lp1685
sI1897
(lp1686
sI1899
(lp1687
sI1901
(lp1688
sI1903
(lp1689
sI1905
(lp1690
sI1907
(lp1691
sI1909
(lp1692
sI1911
(lp1693
sI1913
(lp1694
sI1915
(lp1695
sI1917
(lp1696
sI1919
(lp1697
sI1921
(lp1698
sI1923
(lp1699
sI1925
(lp1700
sI1927
(lp1701
sI1929
(lp1702
sI1931
(lp1703
sI1933
(lp1704
sI1935
(lp1705
sI1937
(lp1706
sI1939
(lp1707
sI1941
(lp1708
sI1942
(lp1709
sI1943
(lp1710
sI1944
(lp1711
sI1946
(lp1712
sI1948
(lp1713
sI1950
(lp1714
sI1952
(lp1715
sI1954
(lp1716
sI1956
(lp1717
sI1958
(lp1718
sI1960
(lp1719
sI1962
(lp1720
sI1964
(lp1721
sI1966
(lp1722
sI1968
(lp1723
sI1970
(lp1724
sI1972
(lp1725
sI1974
(lp1726
sI1976
(lp1727
sI1978
(lp1728
sI1980
(lp1729
sI1982
(lp1730
sI1984
(lp1731
sI1986
(lp1732
sI1988
(lp1733
sI1990
(lp1734
sI1992
(lp1735
sI1994
(lp1736
sI1996
(lp1737
sI1998
(lp1738
sI2000
(lp1739
sI2002
(lp1740
sI2004
(lp1741
sI2006
(lp1742
I2007
asI2007
(lp1743
I2008
aI2014
aI2015
aI2016
aI2017
aI2018
aI2019
aI2020
aI2021
aI2022
aI2024
aI2025
aI3914
aI3920
aI4054
aI4063
asI2008
(lp1744
I2009
aI2027
aI2028
aI2029
aI2030
aI2042
aI2046
aI2114
aI2195
aI3621
aI3622
aI3623
asI2009
(lp1745
I2010
aI2034
aI2035
asI2010
(lp1746
I2011
aI2040
asI2011
(lp1747
I2012
asI2012
(lp1748
I2013
aI4084
asI2013
(lp1749
sI2014
(lp1750
I3917
aI3918
aI3919
aI3971
aI3972
aI3973
aI3974
aI3975
aI3976
aI3977
aI3978
aI3979
aI3980
aI3981
aI3990
aI3991
aI3992
aI3994
aI3997
aI3998
aI4001
aI4002
aI4129
aI4130
aI4131
aI4133
asI2015
(lp1751
sI2016
(lp1752
I3946
asI2017
(lp1753
I3756
aI3757
aI3758
aI3761
aI3763
aI3764
aI3771
aI3772
aI3773
aI3774
aI3815
aI3816
aI3817
aI3818
aI3823
aI3905
aI3906
aI3945
aI3999
aI4003
aI4043
aI4123
aI4124
aI4125
aI4126
asI2018
(lp1754
sI2019
(lp1755
sI2020
(lp1756
I4019
aI4020
aI4021
aI4022
aI4023
aI4024
aI4025
aI4026
aI4027
aI4028
aI4029
aI4030
aI4031
aI4032
aI4033
aI4034
aI4035
aI4036
aI4037
aI4038
aI4039
aI4040
aI4041
aI4042
aI4044
aI4061
aI4070
aI4085
aI4086
aI4087
aI4127
aI4128
aI4132
asI2021
(lp1757
I3923
aI3924
aI3935
aI3988
asI2022
(lp1758
I2023
asI2023
(lp1759
sI2024
(lp1760
sI2025
(lp1761
sI2027
(lp1762
sI2028
(lp1763
sI2029
(lp1764
sI2030
(lp1765
I6
aI8
aI10
aI11
aI12
aI13
aI14
aI15
aI16
aI17
aI18
aI19
aI20
aI21
aI22
aI23
aI24
aI25
aI26
aI27
aI28
aI29
aI30
aI31
aI32
aI33
aI34
aI35
aI36
aI37
aI38
aI39
aI40
aI41
aI42
aI43
aI44
aI45
aI46
aI47
aI48
aI49
aI50
aI51
aI52
aI53
aI54
aI55
aI56
aI57
aI58
aI59
aI60
aI61
aI62
aI63
aI64
aI65
aI66
aI67
aI68
aI69
aI70
aI71
aI72
aI73
aI74
aI75
aI76
aI77
aI78
aI79
aI80
aI81
aI82
aI83
aI84
aI85
aI86
aI87
aI88
aI89
aI90
aI91
aI92
aI93
aI94
aI95
aI96
aI97
aI98
aI99
aI100
aI101
aI102
aI103
aI104
aI105
aI106
aI107
aI108
aI109
aI110
aI111
aI112
aI113
aI114
aI115
aI116
aI117
aI118
aI119
aI120
aI121
aI122
aI123
aI124
aI125
aI126
aI127
aI128
aI129
aI130
aI131
aI132
aI133
aI134
aI135
aI136
aI137
aI138
aI139
aI140
aI141
aI142
aI143
aI144
aI145
aI146
aI147
aI148
aI149
aI150
aI151
aI152
aI153
aI154
aI155
aI156
aI157
aI158
aI159
aI160
aI161
aI162
aI163
aI164
aI165
aI166
aI167
aI168
aI169
aI170
aI171
aI172
aI173
aI174
aI175
aI176
aI177
aI178
aI179
aI180
aI181
aI182
aI183
aI184
aI185
aI186
aI187
aI188
aI189
aI190
aI191
aI192
aI193
aI194
aI195
aI196
aI197
aI198
aI199
aI200
aI201
aI202
aI203
aI204
aI205
aI206
aI207
aI208
aI209
aI210
aI211
aI212
aI213
aI214
aI215
aI216
aI217
aI218
aI219
aI220
aI221
aI222
aI223
aI224
aI225
aI226
aI227
aI228
aI229
aI230
aI231
aI232
aI233
aI234
aI235
aI236
aI237
aI238
aI239
aI240
aI241
aI242
aI243
aI244
aI245
aI246
aI247
aI248
aI249
aI250
aI251
aI252
aI253
aI254
aI255
aI256
aI257
aI258
aI259
aI260
aI261
aI262
aI263
aI264
aI265
aI266
aI267
aI268
aI269
aI270
aI271
aI272
aI273
aI274
aI275
aI276
aI277
aI278
aI279
aI280
aI281
aI282
aI283
aI284
aI285
aI286
aI287
aI288
aI289
aI290
aI291
aI292
aI293
aI294
aI295
aI296
aI297
aI298
aI299
aI300
aI301
aI302
aI303
aI304
aI305
aI306
aI307
aI308
aI309
aI310
aI311
aI312
aI313
aI314
aI315
aI316
aI317
aI318
aI319
aI320
aI321
aI322
aI323
aI324
aI325
aI326
aI327
aI328
aI329
aI330
aI331
aI332
aI333
aI334
aI335
aI336
aI337
aI338
aI339
aI340
aI341
aI342
aI343
aI344
aI345
aI346
aI347
aI348
aI349
aI350
aI351
aI352
aI353
aI354
aI355
aI356
aI357
aI358
aI359
aI360
aI361
aI362
aI363
aI364
aI365
aI366
aI367
aI368
aI369
aI370
aI371
aI372
aI373
aI374
aI375
aI376
aI377
aI378
aI379
aI380
aI381
aI382
aI383
aI384
aI385
aI386
aI387
aI388
aI389
aI390
aI391
aI392
aI393
aI394
aI395
aI396
aI397
aI398
aI399
aI400
aI401
aI402
aI403
aI404
aI405
aI406
aI407
aI408
aI409
aI410
aI411
aI412
aI413
aI414
aI415
aI416
aI417
aI418
aI419
aI420
aI421
aI422
aI423
aI424
aI425
aI426
aI427
aI428
aI429
aI430
aI431
aI432
aI433
aI434
aI435
aI436
aI437
aI438
aI439
aI440
aI441
aI442
aI443
aI444
aI445
aI446
aI447
aI448
aI449
aI450
aI451
aI452
aI453
aI454
aI455
aI456
aI457
aI458
aI459
aI460
aI461
aI462
aI463
aI464
aI465
aI466
aI467
aI468
aI469
aI470
aI471
aI472
aI473
aI474
aI475
aI476
aI477
aI478
aI479
aI480
aI481
aI482
aI483
aI484
aI485
aI486
aI487
aI488
aI489
aI490
aI491
aI492
aI493
aI494
aI495
aI496
aI497
aI498
aI499
aI500
aI501
aI502
aI503
aI504
aI505
aI506
aI507
aI508
aI509
aI510
aI511
aI512
aI513
aI514
aI515
aI516
aI517
aI518
aI519
aI520
aI521
aI522
aI523
aI524
aI525
aI526
aI527
aI528
aI529
aI530
aI531
aI532
aI533
aI534
aI535
aI536
aI537
aI538
aI539
aI540
aI541
aI542
aI543
aI544
aI545
aI546
aI547
aI548
aI549
aI550
aI551
aI552
aI553
aI554
aI555
aI556
aI557
aI558
aI559
aI560
aI561
aI562
aI563
aI564
aI565
aI566
aI567
aI568
aI569
aI570
aI571
aI572
aI573
aI574
aI575
aI576
aI577
aI578
aI579
aI580
aI581
aI582
aI583
aI584
aI585
aI586
aI587
aI588
aI589
aI590
aI591
aI592
aI593
aI594
aI595
aI596
aI597
aI598
aI599
aI600
aI601
aI602
aI603
aI604
aI605
aI606
aI607
aI608
aI609
aI610
aI611
aI612
aI613
aI614
aI615
aI616
aI617
aI618
aI619
aI620
aI621
aI622
aI623
aI624
aI625
aI626
aI627
aI628
aI629
aI630
aI631
aI632
aI633
aI634
aI635
aI636
aI637
aI638
aI639
aI640
aI641
aI642
aI643
aI644
aI645
aI646
aI647
aI648
aI649
aI650
aI651
aI652
aI653
aI654
aI655
aI656
aI657
aI658
aI659
aI660
aI661
aI662
aI663
aI664
aI665
aI666
aI667
aI668
aI669
aI670
aI671
aI672
aI673
aI674
aI675
aI676
aI677
aI678
aI679
aI680
aI681
aI682
aI683
aI684
aI685
aI686
aI687
aI688
aI689
aI690
aI691
aI692
aI693
aI694
aI695
aI696
aI697
aI698
aI699
aI700
aI701
aI702
aI703
aI704
aI705
aI706
aI707
aI708
aI709
aI710
aI711
aI712
aI713
aI714
aI715
aI716
aI717
aI718
aI719
aI720
aI721
aI722
aI723
aI724
aI725
aI726
aI727
aI728
aI729
aI730
aI731
aI732
aI733
aI734
aI735
aI736
aI737
aI738
aI739
aI740
aI741
aI742
aI743
aI744
aI745
aI746
aI747
aI748
aI749
aI750
aI751
aI752
aI753
aI754
aI755
aI756
aI757
aI758
aI759
aI760
aI761
aI762
aI763
aI764
aI765
aI766
aI767
aI768
aI769
aI770
aI771
aI772
aI773
aI774
aI775
aI776
aI777
aI778
aI779
aI780
aI781
aI782
aI783
aI784
aI785
aI786
aI787
aI788
aI789
aI790
aI791
aI792
aI793
aI794
aI795
aI796
aI797
aI798
aI799
aI800
aI801
aI802
aI803
aI804
aI805
aI806
aI807
aI808
aI809
aI810
aI811
aI812
aI813
aI814
aI815
aI816
aI817
aI818
aI819
aI820
aI821
aI822
aI823
aI824
aI825
aI826
aI827
aI828
aI829
aI830
aI831
aI832
aI833
aI834
aI835
aI836
aI837
aI838
aI839
aI840
aI841
aI842
aI843
aI844
aI845
aI846
aI847
aI848
aI849
aI850
aI851
aI852
aI853
aI854
aI855
aI856
aI857
aI858
aI859
aI860
aI861
aI862
aI863
aI864
aI865
aI866
aI867
aI868
aI869
aI870
aI871
aI872
aI873
aI874
aI875
aI876
aI877
aI878
aI879
aI880
aI881
aI882
aI883
aI884
aI885
aI886
aI887
aI888
aI889
aI890
aI891
aI892
aI893
aI894
aI895
aI896
aI897
aI898
aI899
aI900
aI901
aI902
aI903
aI904
aI905
aI906
aI907
aI908
aI909
aI910
aI911
aI912
aI913
aI914
aI915
aI916
aI917
aI918
aI919
aI920
aI921
aI922
aI923
aI924
aI925
aI926
aI927
aI928
aI929
aI930
aI931
aI932
aI933
aI934
aI935
aI936
aI937
aI938
aI939
aI940
aI941
aI942
aI943
aI944
aI945
aI946
aI947
aI948
aI949
aI950
aI951
aI952
aI953
aI954
aI955
aI956
aI957
aI958
aI959
aI960
aI961
aI962
aI963
aI964
aI965
aI966
aI967
aI968
aI969
aI970
aI971
aI972
aI973
aI974
aI975
aI976
aI977
aI978
aI979
aI980
aI981
aI982
aI983
aI984
aI985
aI986
aI987
aI988
aI989
aI990
aI991
aI992
aI993
aI994
aI995
aI996
aI997
aI998
aI999
aI1000
aI1001
aI1002
aI1003
aI1004
aI1005
aI1006
aI1007
aI1008
aI1009
aI1010
aI1011
aI1012
aI1013
aI1014
aI1015
aI1016
aI1017
aI1018
aI1019
aI1020
aI1021
aI1022
aI1023
aI1024
aI1025
aI1026
aI1027
aI1028
aI1029
aI1030
aI1031
aI1032
aI1033
aI1034
aI1035
aI1036
aI1037
aI1038
aI1039
aI1040
aI1041
aI1042
aI1043
aI1044
aI1045
aI1046
aI1047
aI1048
aI1049
aI1050
aI1051
aI1052
aI1053
aI1054
aI1055
aI1056
aI1057
aI1058
aI1059
aI1060
aI1061
aI1062
aI1063
aI1064
aI1065
aI1066
aI1067
aI1068
aI1069
aI1070
aI1071
aI1072
aI1073
aI1074
aI1075
aI1076
aI1077
aI1078
aI1079
aI1080
aI1081
aI1082
aI1083
aI1084
aI1085
aI1086
aI1087
aI1088
aI1089
aI1090
aI1091
aI1092
aI1093
aI1094
aI1095
aI1096
aI1097
aI1098
aI1099
aI1100
aI1101
aI1102
aI1103
aI1104
aI1105
aI1106
aI1107
aI1108
aI1109
aI1110
aI1111
aI1112
aI1113
aI1114
aI1115
aI1116
aI1117
aI1118
aI1119
aI1120
aI1121
aI1122
aI1123
aI1124
aI1125
aI1126
aI1127
aI1128
aI1129
aI1130
aI1131
aI1132
aI1133
aI1134
aI1135
aI1136
aI1137
aI1138
aI1139
aI1140
aI1141
aI1142
aI1143
aI1144
aI1145
aI1146
aI1147
aI1148
aI1149
aI1150
aI1151
aI1152
aI1153
aI1154
aI1155
aI1156
aI1157
aI1158
aI1159
aI1160
aI1161
aI1162
aI1163
aI1164
aI1165
aI1166
aI1167
aI1168
aI1169
aI1170
aI1171
aI1172
aI1173
aI1174
aI1175
aI1176
aI1177
aI1178
aI1179
aI1180
aI1181
aI1182
aI1183
aI1184
aI1185
aI1186
aI1187
aI1188
aI1189
aI1190
aI1191
aI1192
aI1193
aI1194
aI1195
aI1196
aI1197
aI1198
aI1199
aI1200
aI1201
aI1202
aI1203
aI1204
aI1205
aI1206
aI1207
aI1208
aI1209
aI1210
aI1211
aI1212
aI1213
aI1214
aI1215
aI1216
aI1217
aI1218
aI1219
aI1220
aI1221
aI1222
aI1223
aI1224
aI1225
aI1226
aI1227
aI1228
aI1229
aI1230
aI1231
aI1232
aI1233
aI1234
aI1235
aI1236
aI1237
aI1238
aI1239
aI1240
aI1241
aI1242
aI1243
aI1244
aI1245
aI1246
aI1247
aI1248
aI1249
aI1250
aI1251
aI1252
aI1253
aI1254
aI1255
aI1256
aI1257
aI1258
aI1259
aI1260
aI1261
aI1262
aI1263
aI1264
aI1265
aI1266
aI1267
aI1268
aI1269
aI1270
aI1271
aI1272
aI1273
aI1274
aI1275
aI1276
aI1277
aI1278
aI1279
aI1280
aI1281
aI1282
aI1283
aI1284
aI1285
aI1286
aI1287
aI1288
aI1289
aI1290
aI1291
aI1292
aI1293
aI1294
aI1295
aI1296
aI1297
aI1298
aI1299
aI1300
aI1301
aI1302
aI1303
aI1304
aI1305
aI1306
aI1307
aI1308
aI1309
aI1310
aI1311
aI1312
aI1313
aI1314
aI1315
aI1316
aI1317
aI1318
aI1319
aI1320
aI1321
aI1322
aI1323
aI1324
aI1325
aI1326
aI1327
aI1328
aI1329
aI1330
aI1331
aI1332
aI1333
aI1334
aI1335
aI1336
aI1337
aI1338
aI1339
aI1340
aI1341
aI1342
aI1343
aI1344
aI1345
aI1346
aI1347
aI1348
aI1349
aI1350
aI1351
aI1352
aI1353
aI1354
aI1355
aI1356
aI1357
aI1358
aI1359
aI1360
aI1361
aI1362
aI1363
aI1364
aI1365
aI1366
aI1367
aI1368
aI1369
aI1370
aI1371
aI1372
aI1373
aI1374
aI1375
aI1376
aI1377
aI1378
aI1379
aI1380
aI1381
aI1382
aI1383
aI1384
aI1385
aI1386
aI1387
aI1388
aI1389
aI1390
aI1391
aI1392
aI1393
aI1394
aI1395
aI1396
aI1397
aI1398
aI1399
aI1400
aI1401
aI1402
aI1403
aI1404
aI1405
aI1406
aI1407
aI1408
aI1409
aI1410
aI1411
aI1412
aI1413
aI1414
aI1415
aI1416
aI1417
aI1418
aI1419
aI1420
aI1421
aI1422
aI1423
aI1424
aI1425
aI1426
aI1427
aI1428
aI1429
aI1430
aI1431
aI1432
aI1433
aI1434
aI1435
aI1436
aI1437
aI1438
aI1439
aI1440
aI1441
aI1442
aI1443
aI1444
aI1445
aI1446
aI1447
aI1448
aI1449
aI1450
aI1451
aI1452
aI1453
aI1454
aI1455
aI1456
aI1457
aI1458
aI1459
aI1460
aI1461
aI1462
aI1463
aI1464
aI1465
aI1466
aI1467
aI1468
aI1469
aI1470
aI1471
aI1472
aI1473
aI1474
aI1475
aI1476
aI1477
aI1478
aI1479
aI1480
aI1481
aI1482
aI1483
aI1485
aI1486
aI1488
aI1490
aI1492
aI1494
aI1496
aI1498
aI1500
aI1502
aI1504
aI1506
aI1509
aI1511
aI1513
aI1515
aI1518
aI1520
aI1522
aI1524
aI1526
aI1527
aI1528
aI1530
aI1532
aI1534
aI1536
aI1538
aI1540
aI1542
aI1544
aI1546
aI1548
aI1550
aI1553
aI1555
aI1557
aI1559
aI1560
aI1561
aI1564
aI1566
aI1568
aI1570
aI1572
aI1574
aI1576
aI1578
aI1580
aI1582
aI1584
aI1586
aI1588
aI1590
aI1592
aI1593
aI1595
aI1597
aI1599
aI1601
aI1603
aI1605
aI1607
aI1609
aI1611
aI1613
aI1615
aI1617
aI1619
aI1621
aI1623
aI1625
aI1627
aI1629
aI1631
aI1633
aI1635
aI1637
aI1639
aI1641
aI1643
aI1645
aI1647
aI1649
aI1651
aI1653
aI1655
aI1657
aI1659
aI1661
aI1663
aI1665
aI1667
aI1669
aI1671
aI1673
aI1675
aI1677
aI1679
aI1681
aI1683
aI1685
aI1687
aI1689
aI1691
aI1693
aI1695
aI1697
aI1699
aI1701
aI1703
aI1705
aI1707
aI1709
aI1711
aI1713
aI1715
aI1717
aI1719
aI1721
aI1723
aI1725
aI1727
aI1729
aI1731
aI1733
aI1735
aI1737
aI1739
aI1741
aI1743
aI1745
aI1747
aI1749
aI1751
aI1753
aI1755
aI1757
aI1759
aI1761
aI1763
aI1765
aI1767
aI1769
aI1771
aI1774
aI1776
aI1778
aI1780
aI1782
aI1784
aI1786
aI1788
aI1790
aI1792
aI1794
aI1796
aI1799
aI1801
aI1803
aI1805
aI1807
aI1809
aI1811
aI1813
aI1815
aI1817
aI1819
aI1821
aI1823
aI1825
aI1827
aI1829
aI1831
aI1833
aI1835
aI1837
aI1839
aI1841
aI1843
aI1845
aI1847
aI1849
aI1851
aI1853
aI1855
aI1857
aI1859
aI1861
aI1863
aI1865
aI1867
aI1869
aI1871
aI1873
aI1875
aI1877
aI1879
aI1881
aI1884
aI1886
aI1888
aI1889
aI1891
aI1893
aI1895
aI1897
aI1899
aI1901
aI1903
aI1905
aI1907
aI1909
aI1911
aI1913
aI1915
aI1917
aI1919
aI1921
aI1923
aI1925
aI1927
aI1929
aI1931
aI1933
aI1935
aI1937
aI1939
aI1941
aI1942
aI1943
aI1944
aI1946
aI1948
aI1950
aI1952
aI1954
aI1956
aI1958
aI1960
aI1962
aI1964
aI1966
aI1968
aI1970
aI1972
aI1974
aI1976
aI1978
aI1980
aI1982
aI1984
aI1986
aI1988
aI1990
aI1992
aI1994
aI1996
aI1998
aI2000
aI2002
aI2004
asI2034
(lp1766
sI2035
(lp1767
I2036
aI2038
asI2036
(lp1768
I2037
asI2037
(lp1769
sI2038
(lp1770
sI2040
(lp1771
sI2042
(lp1772
I2043
aI2044
aI2045
aI4053
aI4062
asI2043
(lp1773
sI2044
(lp1774
sI2045
(lp1775
sI2046
(lp1776
I2047
aI2053
aI2054
aI2056
aI2057
aI2065
aI2105
aI2107
aI2111
asI2047
(lp1777
I2048
asI2048
(lp1778
I2049
aI2051
asI2049
(lp1779
I2050
asI2050
(lp1780
sI2051
(lp1781
I2052
asI2052
(lp1782
sI2053
(lp1783
sI2054
(lp1784
I2055
asI2055
(lp1785
sI2056
(lp1786
sI2057
(lp1787
I2058
aI2059
aI2060
aI2061
aI2062
aI2063
aI2064
asI2058
(lp1788
sI2059
(lp1789
sI2060
(lp1790
sI2061
(lp1791
sI2062
(lp1792
sI2063
(lp1793
sI2064
(lp1794
sI2065
(lp1795
I2066
aI2068
aI2070
aI2091
aI2093
aI2094
aI2104
asI2066
(lp1796
I2067
asI2067
(lp1797
sI2068
(lp1798
I2069
aI2072
aI2074
aI2075
aI2076
aI2078
aI2080
aI2081
aI2082
aI2083
aI2084
aI2085
aI2086
aI2087
aI2089
aI2090
asI2069
(lp1799
sI2070
(lp1800
I2071
aI2073
aI2077
aI2079
aI2088
aI2097
aI2100
aI2101
asI2071
(lp1801
sI2072
(lp1802
sI2073
(lp1803
sI2074
(lp1804
sI2075
(lp1805
sI2076
(lp1806
sI2077
(lp1807
sI2078
(lp1808
sI2079
(lp1809
sI2080
(lp1810
sI2081
(lp1811
sI2082
(lp1812
sI2083
(lp1813
sI2084
(lp1814
sI2085
(lp1815
sI2086
(lp1816
sI2087
(lp1817
sI2088
(lp1818
sI2089
(lp1819
sI2090
(lp1820
sI2091
(lp1821
I2092
asI2092
(lp1822
sI2093
(lp1823
sI2094
(lp1824
sI2097
(lp1825
sI2100
(lp1826
sI2101
(lp1827
sI2104
(lp1828
sI2105
(lp1829
I2106
asI2106
(lp1830
sI2107
(lp1831
I2108
aI2109
asI2108
(lp1832
sI2109
(lp1833
I2110
asI2110
(lp1834
sI2111
(lp1835
I2112
aI2113
asI2112
(lp1836
sI2113
(lp1837
sI2114
(lp1838
I2115
aI2116
aI2117
aI2118
aI2119
aI2120
aI2121
aI2122
aI2123
aI2124
aI2125
aI2126
aI2127
aI2128
aI2129
aI2130
aI2131
aI2132
aI2133
aI2134
aI2135
aI2136
aI2137
aI2138
aI2139
aI2140
aI2141
aI2142
aI2143
aI2144
aI2145
aI2146
aI2147
aI2148
aI2149
aI2150
aI2151
aI2152
aI2153
aI2154
aI2155
aI2156
aI2157
aI2158
aI2159
aI2160
aI2161
aI2162
aI2163
aI2164
aI2165
aI2166
aI2167
aI2168
aI2169
aI2170
aI2171
aI2172
aI2173
aI2174
aI2175
aI2176
aI2177
aI2178
aI2179
aI2180
aI2181
aI2182
aI2183
aI2184
aI2185
aI2186
aI2187
aI2188
aI2189
aI2190
aI2191
aI2192
aI2193
aI2194
asI2115
(lp1839
sI2116
(lp1840
sI2117
(lp1841
sI2118
(lp1842
sI2119
(lp1843
sI2120
(lp1844
sI2121
(lp1845
sI2122
(lp1846
sI2123
(lp1847
sI2124
(lp1848
sI2125
(lp1849
sI2126
(lp1850
sI2127
(lp1851
sI2128
(lp1852
sI2129
(lp1853
sI2130
(lp1854
sI2131
(lp1855
sI2132
(lp1856
sI2133
(lp1857
sI2134
(lp1858
sI2135
(lp1859
sI2136
(lp1860
sI2137
(lp1861
sI2138
(lp1862
sI2139
(lp1863
sI2140
(lp1864
sI2141
(lp1865
sI2142
(lp1866
sI2143
(lp1867
sI2144
(lp1868
sI2145
(lp1869
sI2146
(lp1870
sI2147
(lp1871
sI2148
(lp1872
sI2149
(lp1873
sI2150
(lp1874
sI2151
(lp1875
sI2152
(lp1876
sI2153
(lp1877
sI2154
(lp1878
sI2155
(lp1879
sI2156
(lp1880
sI2157
(lp1881
sI2158
(lp1882
sI2159
(lp1883
sI2160
(lp1884
sI2161
(lp1885
sI2162
(lp1886
sI2163
(lp1887
sI2164
(lp1888
sI2165
(lp1889
sI2166
(lp1890
sI2167
(lp1891
sI2168
(lp1892
sI2169
(lp1893
sI2170
(lp1894
sI2171
(lp1895
sI2172
(lp1896
sI2173
(lp1897
sI2174
(lp1898
sI2175
(lp1899
sI2176
(lp1900
sI2177
(lp1901
sI2178
(lp1902
sI2179
(lp1903
sI2180
(lp1904
sI2181
(lp1905
sI2182
(lp1906
sI2183
(lp1907
sI2184
(lp1908
sI2185
(lp1909
sI2186
(lp1910
sI2187
(lp1911
sI2188
(lp1912
sI2189
(lp1913
sI2190
(lp1914
sI2191
(lp1915
sI2192
(lp1916
sI2193
(lp1917
sI2194
(lp1918
sI2195
(lp1919
I2196
aI2253
aI2310
aI2367
aI2424
aI2481
aI2538
aI2595
aI2652
aI2709
aI2766
aI2823
aI2880
aI2937
aI2994
aI3051
aI3108
aI3165
aI3222
aI3279
aI3336
aI3393
aI3450
aI3507
aI3564
asI2196
(lp1920
I2197
aI2198
aI2199
aI2200
aI2201
aI2202
aI2203
aI2204
aI2205
aI2206
aI2207
aI2208
aI2209
aI2210
aI2211
aI2212
aI2213
aI2214
aI2215
aI2216
aI2217
aI2218
aI2219
aI2220
aI2221
aI2222
aI2223
aI2224
aI2225
aI2226
aI2227
aI2228
aI2229
aI2230
aI2231
aI2232
aI2233
aI2234
aI2235
aI2236
aI2237
aI2238
aI2239
aI2240
aI2241
aI2242
aI2243
aI2244
aI2245
aI2246
aI2247
aI2248
aI2249
aI2250
aI2251
aI2252
asI2197
(lp1921
sI2198
(lp1922
sI2199
(lp1923
sI2200
(lp1924
sI2201
(lp1925
sI2202
(lp1926
sI2203
(lp1927
sI2204
(lp1928
sI2205
(lp1929
sI2206
(lp1930
sI2207
(lp1931
sI2208
(lp1932
sI2209
(lp1933
sI2210
(lp1934
sI2211
(lp1935
sI2212
(lp1936
sI2213
(lp1937
sI2214
(lp1938
sI2215
(lp1939
sI2216
(lp1940
sI2217
(lp1941
sI2218
(lp1942
sI2219
(lp1943
sI2220
(lp1944
sI2221
(lp1945
sI2222
(lp1946
sI2223
(lp1947
sI2224
(lp1948
sI2225
(lp1949
sI2226
(lp1950
sI2227
(lp1951
sI2228
(lp1952
sI2229
(lp1953
sI2230
(lp1954
sI2231
(lp1955
sI2232
(lp1956
sI2233
(lp1957
sI2234
(lp1958
sI2235
(lp1959
sI2236
(lp1960
sI2237
(lp1961
sI2238
(lp1962
sI2239
(lp1963
sI2240
(lp1964
sI2241
(lp1965
sI2242
(lp1966
sI2243
(lp1967
sI2244
(lp1968
sI2245
(lp1969
sI2246
(lp1970
sI2247
(lp1971
sI2248
(lp1972
sI2249
(lp1973
sI2250
(lp1974
sI2251
(lp1975
sI2252
(lp1976
sI2253
(lp1977
I2254
aI2255
aI2256
aI2257
aI2258
aI2259
aI2260
aI2261
aI2262
aI2263
aI2264
aI2265
aI2266
aI2267
aI2268
aI2269
aI2270
aI2271
aI2272
aI2273
aI2274
aI2275
aI2276
aI2277
aI2278
aI2279
aI2280
aI2281
aI2282
aI2283
aI2284
aI2285
aI2286
aI2287
aI2288
aI2289
aI2290
aI2291
aI2292
aI2293
aI2294
aI2295
aI2296
aI2297
aI2298
aI2299
aI2300
aI2301
aI2302
aI2303
aI2304
aI2305
aI2306
aI2307
aI2308
aI2309
asI2254
(lp1978
sI2255
(lp1979
sI2256
(lp1980
sI2257
(lp1981
sI2258
(lp1982
sI2259
(lp1983
sI2260
(lp1984
sI2261
(lp1985
sI2262
(lp1986
sI2263
(lp1987
sI2264
(lp1988
sI2265
(lp1989
sI2266
(lp1990
sI2267
(lp1991
sI2268
(lp1992
sI2269
(lp1993
sI2270
(lp1994
sI2271
(lp1995
sI2272
(lp1996
sI2273
(lp1997
sI2274
(lp1998
sI2275
(lp1999
sI2276
(lp2000
sI2277
(lp2001
sI2278
(lp2002
sI2279
(lp2003
sI2280
(lp2004
sI2281
(lp2005
sI2282
(lp2006
sI2283
(lp2007
sI2284
(lp2008
sI2285
(lp2009
sI2286
(lp2010
sI2287
(lp2011
sI2288
(lp2012
sI2289
(lp2013
sI2290
(lp2014
sI2291
(lp2015
sI2292
(lp2016
sI2293
(lp2017
sI2294
(lp2018
sI2295
(lp2019
sI2296
(lp2020
sI2297
(lp2021
sI2298
(lp2022
sI2299
(lp2023
sI2300
(lp2024
sI2301
(lp2025
sI2302
(lp2026
sI2303
(lp2027
sI2304
(lp2028
sI2305
(lp2029
sI2306
(lp2030
sI2307
(lp2031
sI2308
(lp2032
sI2309
(lp2033
sI2310
(lp2034
I2311
aI2312
aI2313
aI2314
aI2315
aI2316
aI2317
aI2318
aI2319
aI2320
aI2321
aI2322
aI2323
aI2324
aI2325
aI2326
aI2327
aI2328
aI2329
aI2330
aI2331
aI2332
aI2333
aI2334
aI2335
aI2336
aI2337
aI2338
aI2339
aI2340
aI2341
aI2342
aI2343
aI2344
aI2345
aI2346
aI2347
aI2348
aI2349
aI2350
aI2351
aI2352
aI2353
aI2354
aI2355
aI2356
aI2357
aI2358
aI2359
aI2360
aI2361
aI2362
aI2363
aI2364
aI2365
aI2366
asI2311
(lp2035
sI2312
(lp2036
sI2313
(lp2037
sI2314
(lp2038
sI2315
(lp2039
sI2316
(lp2040
sI2317
(lp2041
sI2318
(lp2042
sI2319
(lp2043
sI2320
(lp2044
sI2321
(lp2045
sI2322
(lp2046
sI2323
(lp2047
sI2324
(lp2048
sI2325
(lp2049
sI2326
(lp2050
sI2327
(lp2051
sI2328
(lp2052
sI2329
(lp2053
sI2330
(lp2054
sI2331
(lp2055
sI2332
(lp2056
sI2333
(lp2057
sI2334
(lp2058
sI2335
(lp2059
sI2336
(lp2060
sI2337
(lp2061
sI2338
(lp2062
sI2339
(lp2063
sI2340
(lp2064
sI2341
(lp2065
sI2342
(lp2066
sI2343
(lp2067
sI2344
(lp2068
sI2345
(lp2069
sI2346
(lp2070
sI2347
(lp2071
sI2348
(lp2072
sI2349
(lp2073
sI2350
(lp2074
sI2351
(lp2075
sI2352
(lp2076
sI2353
(lp2077
sI2354
(lp2078
sI2355
(lp2079
sI2356
(lp2080
sI2357
(lp2081
sI2358
(lp2082
sI2359
(lp2083
sI2360
(lp2084
sI2361
(lp2085
sI2362
(lp2086
sI2363
(lp2087
sI2364
(lp2088
sI2365
(lp2089
sI2366
(lp2090
sI2367
(lp2091
I2368
aI2369
aI2370
aI2371
aI2372
aI2373
aI2374
aI2375
aI2376
aI2377
aI2378
aI2379
aI2380
aI2381
aI2382
aI2383
aI2384
aI2385
aI2386
aI2387
aI2388
aI2389
aI2390
aI2391
aI2392
aI2393
aI2394
aI2395
aI2396
aI2397
aI2398
aI2399
aI2400
aI2401
aI2402
aI2403
aI2404
aI2405
aI2406
aI2407
aI2408
aI2409
aI2410
aI2411
aI2412
aI2413
aI2414
aI2415
aI2416
aI2417
aI2418
aI2419
aI2420
aI2421
aI2422
aI2423
asI2368
(lp2092
sI2369
(lp2093
sI2370
(lp2094
sI2371
(lp2095
sI2372
(lp2096
sI2373
(lp2097
sI2374
(lp2098
sI2375
(lp2099
sI2376
(lp2100
sI2377
(lp2101
sI2378
(lp2102
sI2379
(lp2103
sI2380
(lp2104
sI2381
(lp2105
sI2382
(lp2106
sI2383
(lp2107
sI2384
(lp2108
sI2385
(lp2109
sI2386
(lp2110
sI2387
(lp2111
sI2388
(lp2112
sI2389
(lp2113
sI2390
(lp2114
sI2391
(lp2115
sI2392
(lp2116
sI2393
(lp2117
sI2394
(lp2118
sI2395
(lp2119
sI2396
(lp2120
sI2397
(lp2121
sI2398
(lp2122
sI2399
(lp2123
sI2400
(lp2124
sI2401
(lp2125
sI2402
(lp2126
sI2403
(lp2127
sI2404
(lp2128
sI2405
(lp2129
sI2406
(lp2130
sI2407
(lp2131
sI2408
(lp2132
sI2409
(lp2133
sI2410
(lp2134
sI2411
(lp2135
sI2412
(lp2136
sI2413
(lp2137
sI2414
(lp2138
sI2415
(lp2139
sI2416
(lp2140
sI2417
(lp2141
sI2418
(lp2142
sI2419
(lp2143
sI2420
(lp2144
sI2421
(lp2145
sI2422
(lp2146
sI2423
(lp2147
sI2424
(lp2148
I2425
aI2426
aI2427
aI2428
aI2429
aI2430
aI2431
aI2432
aI2433
aI2434
aI2435
aI2436
aI2437
aI2438
aI2439
aI2440
aI2441
aI2442
aI2443
aI2444
aI2445
aI2446
aI2447
aI2448
aI2449
aI2450
aI2451
aI2452
aI2453
aI2454
aI2455
aI2456
aI2457
aI2458
aI2459
aI2460
aI2461
aI2462
aI2463
aI2464
aI2465
aI2466
aI2467
aI2468
aI2469
aI2470
aI2471
aI2472
aI2473
aI2474
aI2475
aI2476
aI2477
aI2478
aI2479
aI2480
asI2425
(lp2149
sI2426
(lp2150
sI2427
(lp2151
sI2428
(lp2152
sI2429
(lp2153
sI2430
(lp2154
sI2431
(lp2155
sI2432
(lp2156
sI2433
(lp2157
sI2434
(lp2158
sI2435
(lp2159
sI2436
(lp2160
sI2437
(lp2161
sI2438
(lp2162
sI2439
(lp2163
sI2440
(lp2164
sI2441
(lp2165
sI2442
(lp2166
sI2443
(lp2167
sI2444
(lp2168
sI2445
(lp2169
sI2446
(lp2170
sI2447
(lp2171
sI2448
(lp2172
sI2449
(lp2173
sI2450
(lp2174
sI2451
(lp2175
sI2452
(lp2176
sI2453
(lp2177
sI2454
(lp2178
sI2455
(lp2179
sI2456
(lp2180
sI2457
(lp2181
sI2458
(lp2182
sI2459
(lp2183
sI2460
(lp2184
sI2461
(lp2185
sI2462
(lp2186
sI2463
(lp2187
sI2464
(lp2188
sI2465
(lp2189
sI2466
(lp2190
sI2467
(lp2191
sI2468
(lp2192
sI2469
(lp2193
sI2470
(lp2194
sI2471
(lp2195
sI2472
(lp2196
sI2473
(lp2197
sI2474
(lp2198
sI2475
(lp2199
sI2476
(lp2200
sI2477
(lp2201
sI2478
(lp2202
sI2479
(lp2203
sI2480
(lp2204
sI2481
(lp2205
I2482
aI2483
aI2484
aI2485
aI2486
aI2487
aI2488
aI2489
aI2490
aI2491
aI2492
aI2493
aI2494
aI2495
aI2496
aI2497
aI2498
aI2499
aI2500
aI2501
aI2502
aI2503
aI2504
aI2505
aI2506
aI2507
aI2508
aI2509
aI2510
aI2511
aI2512
aI2513
aI2514
aI2515
aI2516
aI2517
aI2518
aI2519
aI2520
aI2521
aI2522
aI2523
aI2524
aI2525
aI2526
aI2527
aI2528
aI2529
aI2530
aI2531
aI2532
aI2533
aI2534
aI2535
aI2536
aI2537
asI2482
(lp2206
sI2483
(lp2207
sI2484
(lp2208
sI2485
(lp2209
sI2486
(lp2210
sI2487
(lp2211
sI2488
(lp2212
sI2489
(lp2213
sI2490
(lp2214
sI2491
(lp2215
sI2492
(lp2216
sI2493
(lp2217
sI2494
(lp2218
sI2495
(lp2219
sI2496
(lp2220
sI2497
(lp2221
sI2498
(lp2222
sI2499
(lp2223
sI2500
(lp2224
sI2501
(lp2225
sI2502
(lp2226
sI2503
(lp2227
sI2504
(lp2228
sI2505
(lp2229
sI2506
(lp2230
sI2507
(lp2231
sI2508
(lp2232
sI2509
(lp2233
sI2510
(lp2234
sI2511
(lp2235
sI2512
(lp2236
sI2513
(lp2237
sI2514
(lp2238
sI2515
(lp2239
sI2516
(lp2240
sI2517
(lp2241
sI2518
(lp2242
sI2519
(lp2243
sI2520
(lp2244
sI2521
(lp2245
sI2522
(lp2246
sI2523
(lp2247
sI2524
(lp2248
sI2525
(lp2249
sI2526
(lp2250
sI2527
(lp2251
sI2528
(lp2252
sI2529
(lp2253
sI2530
(lp2254
sI2531
(lp2255
sI2532
(lp2256
sI2533
(lp2257
sI2534
(lp2258
sI2535
(lp2259
sI2536
(lp2260
sI2537
(lp2261
sI2538
(lp2262
I2539
aI2540
aI2541
aI2542
aI2543
aI2544
aI2545
aI2546
aI2547
aI2548
aI2549
aI2550
aI2551
aI2552
aI2553
aI2554
aI2555
aI2556
aI2557
aI2558
aI2559
aI2560
aI2561
aI2562
aI2563
aI2564
aI2565
aI2566
aI2567
aI2568
aI2569
aI2570
aI2571
aI2572
aI2573
aI2574
aI2575
aI2576
aI2577
aI2578
aI2579
aI2580
aI2581
aI2582
aI2583
aI2584
aI2585
aI2586
aI2587
aI2588
aI2589
aI2590
aI2591
aI2592
aI2593
aI2594
asI2539
(lp2263
sI2540
(lp2264
sI2541
(lp2265
sI2542
(lp2266
sI2543
(lp2267
sI2544
(lp2268
sI2545
(lp2269
sI2546
(lp2270
sI2547
(lp2271
sI2548
(lp2272
sI2549
(lp2273
sI2550
(lp2274
sI2551
(lp2275
sI2552
(lp2276
sI2553
(lp2277
sI2554
(lp2278
sI2555
(lp2279
sI2556
(lp2280
sI2557
(lp2281
sI2558
(lp2282
sI2559
(lp2283
sI2560
(lp2284
sI2561
(lp2285
sI2562
(lp2286
sI2563
(lp2287
sI2564
(lp2288
sI2565
(lp2289
sI2566
(lp2290
sI2567
(lp2291
sI2568
(lp2292
sI2569
(lp2293
sI2570
(lp2294
sI2571
(lp2295
sI2572
(lp2296
sI2573
(lp2297
sI2574
(lp2298
sI2575
(lp2299
sI2576
(lp2300
sI2577
(lp2301
sI2578
(lp2302
sI2579
(lp2303
sI2580
(lp2304
sI2581
(lp2305
sI2582
(lp2306
sI2583
(lp2307
sI2584
(lp2308
sI2585
(lp2309
sI2586
(lp2310
sI2587
(lp2311
sI2588
(lp2312
sI2589
(lp2313
sI2590
(lp2314
sI2591
(lp2315
sI2592
(lp2316
sI2593
(lp2317
sI2594
(lp2318
sI2595
(lp2319
I2596
aI2597
aI2598
aI2599
aI2600
aI2601
aI2602
aI2603
aI2604
aI2605
aI2606
aI2607
aI2608
aI2609
aI2610
aI2611
aI2612
aI2613
aI2614
aI2615
aI2616
aI2617
aI2618
aI2619
aI2620
aI2621
aI2622
aI2623
aI2624
aI2625
aI2626
aI2627
aI2628
aI2629
aI2630
aI2631
aI2632
aI2633
aI2634
aI2635
aI2636
aI2637
aI2638
aI2639
aI2640
aI2641
aI2642
aI2643
aI2644
aI2645
aI2646
aI2647
aI2648
aI2649
aI2650
aI2651
asI2596
(lp2320
sI2597
(lp2321
sI2598
(lp2322
sI2599
(lp2323
sI2600
(lp2324
sI2601
(lp2325
sI707406378
(lp2326
I1
asI2603
(lp2327
sI2604
(lp2328
sI2605
(lp2329
sI2606
(lp2330
sI2607
(lp2331
sI2608
(lp2332
sI2609
(lp2333
sI2610
(lp2334
sI2611
(lp2335
sI2612
(lp2336
sI2613
(lp2337
sI2614
(lp2338
sI2615
(lp2339
sI2616
(lp2340
sI2617
(lp2341
sI2618
(lp2342
sI2619
(lp2343
sI2620
(lp2344
sI2621
(lp2345
sI2622
(lp2346
sI2623
(lp2347
sI2624
(lp2348
sI2625
(lp2349
sI2626
(lp2350
sI2627
(lp2351
sI2628
(lp2352
sI2629
(lp2353
sI2630
(lp2354
sI2631
(lp2355
sI2632
(lp2356
sI2633
(lp2357
sI2634
(lp2358
sI2635
(lp2359
sI2636
(lp2360
sI2637
(lp2361
sI2638
(lp2362
sI2639
(lp2363
sI2640
(lp2364
sI2641
(lp2365
sI2642
(lp2366
sI2643
(lp2367
sI2644
(lp2368
sI2645
(lp2369
sI2646
(lp2370
sI2647
(lp2371
sI2648
(lp2372
sI2649
(lp2373
sI2650
(lp2374
sI2651
(lp2375
sI2652
(lp2376
I2653
aI2654
aI2655
aI2656
aI2657
aI2658
aI2659
aI2660
aI2661
aI2662
aI2663
aI2664
aI2665
aI2666
aI2667
aI2668
aI2669
aI2670
aI2671
aI2672
aI2673
aI2674
aI2675
aI2676
aI2677
aI2678
aI2679
aI2680
aI2681
aI2682
aI2683
aI2684
aI2685
aI2686
aI2687
aI2688
aI2689
aI2690
aI2691
aI2692
aI2693
aI2694
aI2695
aI2696
aI2697
aI2698
aI2699
aI2700
aI2701
aI2702
aI2703
aI2704
aI2705
aI2706
aI2707
aI2708
asI2653
(lp2377
sI2654
(lp2378
sI2655
(lp2379
sI2656
(lp2380
sI2657
(lp2381
sI2658
(lp2382
sI2659
(lp2383
sI2660
(lp2384
sI2661
(lp2385
sI2662
(lp2386
sI2663
(lp2387
sI2664
(lp2388
sI2665
(lp2389
sI2666
(lp2390
sI2667
(lp2391
sI2668
(lp2392
sI2669
(lp2393
sI2670
(lp2394
sI2671
(lp2395
sI2672
(lp2396
sI2673
(lp2397
sI2674
(lp2398
sI2675
(lp2399
sI2676
(lp2400
sI2677
(lp2401
sI2678
(lp2402
sI2679
(lp2403
sI2680
(lp2404
sI2681
(lp2405
sI2682
(lp2406
sI2683
(lp2407
sI2684
(lp2408
sI2685
(lp2409
sI2686
(lp2410
sI2687
(lp2411
sI2688
(lp2412
sI2689
(lp2413
sI2690
(lp2414
sI2691
(lp2415
sI2692
(lp2416
sI2693
(lp2417
sI2694
(lp2418
sI2695
(lp2419
sI2696
(lp2420
sI2697
(lp2421
sI2698
(lp2422
sI2699
(lp2423
sI2700
(lp2424
sI2701
(lp2425
sI2702
(lp2426
sI2703
(lp2427
sI2704
(lp2428
sI2705
(lp2429
sI2706
(lp2430
sI2707
(lp2431
sI2708
(lp2432
sI2709
(lp2433
I2710
aI2711
aI2712
aI2713
aI2714
aI2715
aI2716
aI2717
aI2718
aI2719
aI2720
aI2721
aI2722
aI2723
aI2724
aI2725
aI2726
aI2727
aI2728
aI2729
aI2730
aI2731
aI2732
aI2733
aI2734
aI2735
aI2736
aI2737
aI2738
aI2739
aI2740
aI2741
aI2742
aI2743
aI2744
aI2745
aI2746
aI2747
aI2748
aI2749
aI2750
aI2751
aI2752
aI2753
aI2754
aI2755
aI2756
aI2757
aI2758
aI2759
aI2760
aI2761
aI2762
aI2763
aI2764
aI2765
asI2710
(lp2434
sI2711
(lp2435
sI2712
(lp2436
sI2713
(lp2437
sI2714
(lp2438
sI2715
(lp2439
sI2716
(lp2440
sI2717
(lp2441
sI2718
(lp2442
sI2719
(lp2443
sI2720
(lp2444
sI2721
(lp2445
sI2722
(lp2446
sI2723
(lp2447
sI2724
(lp2448
sI2725
(lp2449
sI2726
(lp2450
sI2727
(lp2451
sI2728
(lp2452
sI2729
(lp2453
sI2730
(lp2454
sI2731
(lp2455
sI2732
(lp2456
sI2733
(lp2457
sI2734
(lp2458
sI2735
(lp2459
sI2736
(lp2460
sI2737
(lp2461
sI2738
(lp2462
sI2739
(lp2463
sI2740
(lp2464
sI2741
(lp2465
sI2742
(lp2466
sI2743
(lp2467
sI2744
(lp2468
sI2745
(lp2469
sI2746
(lp2470
sI2747
(lp2471
sI2748
(lp2472
sI2749
(lp2473
sI2750
(lp2474
sI2751
(lp2475
sI2752
(lp2476
sI2753
(lp2477
sI2754
(lp2478
sI2755
(lp2479
sI2756
(lp2480
sI2757
(lp2481
sI2758
(lp2482
sI2759
(lp2483
sI2760
(lp2484
sI2761
(lp2485
sI2762
(lp2486
sI2763
(lp2487
sI2764
(lp2488
sI2765
(lp2489
sI2766
(lp2490
I2767
aI2768
aI2769
aI2770
aI2771
aI2772
aI2773
aI2774
aI2775
aI2776
aI2777
aI2778
aI2779
aI2780
aI2781
aI2782
aI2783
aI2784
aI2785
aI2786
aI2787
aI2788
aI2789
aI2790
aI2791
aI2792
aI2793
aI2794
aI2795
aI2796
aI2797
aI2798
aI2799
aI2800
aI2801
aI2802
aI2803
aI2804
aI2805
aI2806
aI2807
aI2808
aI2809
aI2810
aI2811
aI2812
aI2813
aI2814
aI2815
aI2816
aI2817
aI2818
aI2819
aI2820
aI2821
aI2822
asI2767
(lp2491
sI2768
(lp2492
sI2769
(lp2493
sI2770
(lp2494
sI2771
(lp2495
sI2772
(lp2496
sI2773
(lp2497
sI2774
(lp2498
sI2775
(lp2499
sI2776
(lp2500
sI2777
(lp2501
sI2778
(lp2502
sI2779
(lp2503
sI2780
(lp2504
sI2781
(lp2505
sI2782
(lp2506
sI2783
(lp2507
sI2784
(lp2508
sI2785
(lp2509
sI2786
(lp2510
sI2787
(lp2511
sI2788
(lp2512
sI2789
(lp2513
sI2790
(lp2514
sI2791
(lp2515
sI2792
(lp2516
sI2793
(lp2517
sI2794
(lp2518
sI2795
(lp2519
sI2796
(lp2520
sI2797
(lp2521
sI2798
(lp2522
sI2799
(lp2523
sI2800
(lp2524
sI2801
(lp2525
sI2802
(lp2526
sI2803
(lp2527
sI2804
(lp2528
sI2805
(lp2529
sI2806
(lp2530
sI2807
(lp2531
sI2808
(lp2532
sI2809
(lp2533
sI2810
(lp2534
sI2811
(lp2535
sI2812
(lp2536
sI2813
(lp2537
sI2814
(lp2538
sI2815
(lp2539
sI2816
(lp2540
sI2817
(lp2541
sI2818
(lp2542
sI2819
(lp2543
sI2820
(lp2544
sI2821
(lp2545
sI2822
(lp2546
sI2823
(lp2547
I2824
aI2825
aI2826
aI2827
aI2828
aI2829
aI2830
aI2831
aI2832
aI2833
aI2834
aI2835
aI2836
aI2837
aI2838
aI2839
aI2840
aI2841
aI2842
aI2843
aI2844
aI2845
aI2846
aI2847
aI2848
aI2849
aI2850
aI2851
aI2852
aI2853
aI2854
aI2855
aI2856
aI2857
aI2858
aI2859
aI2860
aI2861
aI2862
aI2863
aI2864
aI2865
aI2866
aI2867
aI2868
aI2869
aI2870
aI2871
aI2872
aI2873
aI2874
aI2875
aI2876
aI2877
aI2878
aI2879
asI2824
(lp2548
sI2825
(lp2549
sI2826
(lp2550
sI2827
(lp2551
sI2828
(lp2552
sI2829
(lp2553
sI2830
(lp2554
sI2831
(lp2555
sI2832
(lp2556
sI2833
(lp2557
sI2834
(lp2558
sI2835
(lp2559
sI2836
(lp2560
sI2837
(lp2561
sI2838
(lp2562
sI2839
(lp2563
sI2840
(lp2564
sI2841
(lp2565
sI2842
(lp2566
sI2843
(lp2567
sI2844
(lp2568
sI2845
(lp2569
sI2846
(lp2570
sI2847
(lp2571
sI2848
(lp2572
sI2849
(lp2573
sI2850
(lp2574
sI2851
(lp2575
sI2852
(lp2576
sI2853
(lp2577
sI2854
(lp2578
sI2855
(lp2579
sI2856
(lp2580
sI2857
(lp2581
sI2858
(lp2582
sI2859
(lp2583
sI2860
(lp2584
sI2861
(lp2585
sI2862
(lp2586
sI2863
(lp2587
sI2864
(lp2588
sI2865
(lp2589
sI2866
(lp2590
sI2867
(lp2591
sI2868
(lp2592
sI2869
(lp2593
sI2870
(lp2594
sI2871
(lp2595
sI2872
(lp2596
sI2873
(lp2597
sI2874
(lp2598
sI2875
(lp2599
sI2876
(lp2600
sI2877
(lp2601
sI2878
(lp2602
sI2879
(lp2603
sI2880
(lp2604
I2881
aI2882
aI2883
aI2884
aI2885
aI2886
aI2887
aI2888
aI2889
aI2890
aI2891
aI2892
aI2893
aI2894
aI2895
aI2896
aI2897
aI2898
aI2899
aI2900
aI2901
aI2902
aI2903
aI2904
aI2905
aI2906
aI2907
aI2908
aI2909
aI2910
aI2911
aI2912
aI2913
aI2914
aI2915
aI2916
aI2917
aI2918
aI2919
aI2920
aI2921
aI2922
aI2923
aI2924
aI2925
aI2926
aI2927
aI2928
aI2929
aI2930
aI2931
aI2932
aI2933
aI2934
aI2935
aI2936
asI2881
(lp2605
sI2882
(lp2606
sI2883
(lp2607
sI2884
(lp2608
sI2885
(lp2609
sI2886
(lp2610
sI2887
(lp2611
sI2888
(lp2612
sI2889
(lp2613
sI2890
(lp2614
sI2891
(lp2615
sI2892
(lp2616
sI2893
(lp2617
sI2894
(lp2618
sI2895
(lp2619
sI2896
(lp2620
sI2897
(lp2621
sI2898
(lp2622
sI2899
(lp2623
sI2900
(lp2624
sI2901
(lp2625
sI2902
(lp2626
sI2903
(lp2627
sI2904
(lp2628
sI2905
(lp2629
sI2906
(lp2630
sI2907
(lp2631
sI2908
(lp2632
sI2909
(lp2633
sI2910
(lp2634
sI2911
(lp2635
sI2912
(lp2636
sI2913
(lp2637
sI2914
(lp2638
sI2915
(lp2639
sI2916
(lp2640
sI2917
(lp2641
sI2918
(lp2642
sI2919
(lp2643
sI2920
(lp2644
sI2921
(lp2645
sI2922
(lp2646
sI2923
(lp2647
sI2924
(lp2648
sI2925
(lp2649
sI2926
(lp2650
sI2927
(lp2651
sI2928
(lp2652
sI2929
(lp2653
sI2930
(lp2654
sI2931
(lp2655
sI2932
(lp2656
sI2933
(lp2657
sI2934
(lp2658
sI2935
(lp2659
sI2936
(lp2660
sI2937
(lp2661
I2938
aI2939
aI2940
aI2941
aI2942
aI2943
aI2944
aI2945
aI2946
aI2947
aI2948
aI2949
aI2950
aI2951
aI2952
aI2953
aI2954
aI2955
aI2956
aI2957
aI2958
aI2959
aI2960
aI2961
aI2962
aI2963
aI2964
aI2965
aI2966
aI2967
aI2968
aI2969
aI2970
aI2971
aI2972
aI2973
aI2974
aI2975
aI2976
aI2977
aI2978
aI2979
aI2980
aI2981
aI2982
aI2983
aI2984
aI2985
aI2986
aI2987
aI2988
aI2989
aI2990
aI2991
aI2992
aI2993
asI2938
(lp2662
sI2939
(lp2663
sI2940
(lp2664
sI2941
(lp2665
sI2942
(lp2666
sI2943
(lp2667
sI2944
(lp2668
sI2945
(lp2669
sI2946
(lp2670
sI2947
(lp2671
sI2948
(lp2672
sI2949
(lp2673
sI2950
(lp2674
sI2951
(lp2675
sI2952
(lp2676
sI2953
(lp2677
sI2954
(lp2678
sI2955
(lp2679
sI2956
(lp2680
sI2957
(lp2681
sI2958
(lp2682
sI2959
(lp2683
sI2960
(lp2684
sI2961
(lp2685
sI2962
(lp2686
sI2963
(lp2687
sI2964
(lp2688
sI2965
(lp2689
sI2966
(lp2690
sI2967
(lp2691
sI2968
(lp2692
sI2969
(lp2693
sI2970
(lp2694
sI2971
(lp2695
sI2972
(lp2696
sI2973
(lp2697
sI2974
(lp2698
sI2975
(lp2699
sI2976
(lp2700
sI2977
(lp2701
sI2978
(lp2702
sI2979
(lp2703
sI2980
(lp2704
sI2981
(lp2705
sI2982
(lp2706
sI2983
(lp2707
sI2984
(lp2708
sI2985
(lp2709
sI2986
(lp2710
sI2987
(lp2711
sI2988
(lp2712
sI2989
(lp2713
sI2990
(lp2714
sI2991
(lp2715
sI2992
(lp2716
sI2993
(lp2717
sI2994
(lp2718
I2995
aI2996
aI2997
aI2998
aI2999
aI3000
aI3001
aI3002
aI3003
aI3004
aI3005
aI3006
aI3007
aI3008
aI3009
aI3010
aI3011
aI3012
aI3013
aI3014
aI3015
aI3016
aI3017
aI3018
aI3019
aI3020
aI3021
aI3022
aI3023
aI3024
aI3025
aI3026
aI3027
aI3028
aI3029
aI3030
aI3031
aI3032
aI3033
aI3034
aI3035
aI3036
aI3037
aI3038
aI3039
aI3040
aI3041
aI3042
aI3043
aI3044
aI3045
aI3046
aI3047
aI3048
aI3049
aI3050
asI2995
(lp2719
sI2996
(lp2720
sI2997
(lp2721
sI2998
(lp2722
sI2999
(lp2723
sI3000
(lp2724
sI3001
(lp2725
sI3002
(lp2726
sI3003
(lp2727
sI3004
(lp2728
sI3005
(lp2729
sI3006
(lp2730
sI3007
(lp2731
sI3008
(lp2732
sI3009
(lp2733
sI3010
(lp2734
sI3011
(lp2735
sI3012
(lp2736
sI3013
(lp2737
sI3014
(lp2738
sI3015
(lp2739
sI3016
(lp2740
sI3017
(lp2741
sI3018
(lp2742
sI3019
(lp2743
sI3020
(lp2744
sI3021
(lp2745
sI3022
(lp2746
sI3023
(lp2747
sI3024
(lp2748
sI3025
(lp2749
sI3026
(lp2750
sI3027
(lp2751
sI3028
(lp2752
sI3029
(lp2753
sI3030
(lp2754
sI3031
(lp2755
sI3032
(lp2756
sI3033
(lp2757
sI3034
(lp2758
sI3035
(lp2759
sI3036
(lp2760
sI3037
(lp2761
sI3038
(lp2762
sI3039
(lp2763
sI3040
(lp2764
sI3041
(lp2765
sI3042
(lp2766
sI3043
(lp2767
sI3044
(lp2768
sI3045
(lp2769
sI3046
(lp2770
sI3047
(lp2771
sI3048
(lp2772
sI3049
(lp2773
sI3050
(lp2774
sI3051
(lp2775
I3052
aI3053
aI3054
aI3055
aI3056
aI3057
aI3058
aI3059
aI3060
aI3061
aI3062
aI3063
aI3064
aI3065
aI3066
aI3067
aI3068
aI3069
aI3070
aI3071
aI3072
aI3073
aI3074
aI3075
aI3076
aI3077
aI3078
aI3079
aI3080
aI3081
aI3082
aI3083
aI3084
aI3085
aI3086
aI3087
aI3088
aI3089
aI3090
aI3091
aI3092
aI3093
aI3094
aI3095
aI3096
aI3097
aI3098
aI3099
aI3100
aI3101
aI3102
aI3103
aI3104
aI3105
aI3106
aI3107
asI3052
(lp2776
sI3053
(lp2777
sI3054
(lp2778
sI3055
(lp2779
sI3056
(lp2780
sI3057
(lp2781
sI3058
(lp2782
sI3059
(lp2783
sI3060
(lp2784
sI3061
(lp2785
sI3062
(lp2786
sI3063
(lp2787
sI3064
(lp2788
sI3065
(lp2789
sI3066
(lp2790
sI3067
(lp2791
sI3068
(lp2792
sI3069
(lp2793
sI3070
(lp2794
sI3071
(lp2795
sI3072
(lp2796
sI3073
(lp2797
sI3074
(lp2798
sI3075
(lp2799
sI3076
(lp2800
sI3077
(lp2801
sI3078
(lp2802
sI3079
(lp2803
sI3080
(lp2804
sI3081
(lp2805
sI3082
(lp2806
sI3083
(lp2807
sI3084
(lp2808
sI3085
(lp2809
sI3086
(lp2810
sI3087
(lp2811
sI3088
(lp2812
sI3089
(lp2813
sI3090
(lp2814
sI3091
(lp2815
sI3092
(lp2816
sI3093
(lp2817
sI3094
(lp2818
sI3095
(lp2819
sI3096
(lp2820
sI3097
(lp2821
sI3098
(lp2822
sI3099
(lp2823
sI3100
(lp2824
sI3101
(lp2825
sI3102
(lp2826
sI3103
(lp2827
sI3104
(lp2828
sI3105
(lp2829
sI3106
(lp2830
sI3107
(lp2831
sI3108
(lp2832
I3109
aI3110
aI3111
aI3112
aI3113
aI3114
aI3115
aI3116
aI3117
aI3118
aI3119
aI3120
aI3121
aI3122
aI3123
aI3124
aI3125
aI3126
aI3127
aI3128
aI3129
aI3130
aI3131
aI3132
aI3133
aI3134
aI3135
aI3136
aI3137
aI3138
aI3139
aI3140
aI3141
aI3142
aI3143
aI3144
aI3145
aI3146
aI3147
aI3148
aI3149
aI3150
aI3151
aI3152
aI3153
aI3154
aI3155
aI3156
aI3157
aI3158
aI3159
aI3160
aI3161
aI3162
aI3163
aI3164
asI3109
(lp2833
sI3110
(lp2834
sI3111
(lp2835
sI3112
(lp2836
sI3113
(lp2837
sI3114
(lp2838
sI3115
(lp2839
sI3116
(lp2840
sI3117
(lp2841
sI3118
(lp2842
sI3119
(lp2843
sI3120
(lp2844
sI3121
(lp2845
sI3122
(lp2846
sI3123
(lp2847
sI3124
(lp2848
sI3125
(lp2849
sI3126
(lp2850
sI3127
(lp2851
sI3128
(lp2852
sI3129
(lp2853
sI3130
(lp2854
sI3131
(lp2855
sI3132
(lp2856
sI3133
(lp2857
sI3134
(lp2858
sI3135
(lp2859
sI3136
(lp2860
sI3137
(lp2861
sI3138
(lp2862
sI3139
(lp2863
sI3140
(lp2864
sI3141
(lp2865
sI3142
(lp2866
sI3143
(lp2867
sI3144
(lp2868
sI3145
(lp2869
sI3146
(lp2870
sI3147
(lp2871
sI3148
(lp2872
sI3149
(lp2873
sI3150
(lp2874
sI3151
(lp2875
sI3152
(lp2876
sI3153
(lp2877
sI3154
(lp2878
sI3155
(lp2879
sI3156
(lp2880
sI3157
(lp2881
sI3158
(lp2882
sI3159
(lp2883
sI3160
(lp2884
sI3161
(lp2885
sI3162
(lp2886
sI3163
(lp2887
sI3164
(lp2888
sI3165
(lp2889
I3166
aI3167
aI3168
aI3169
aI3170
aI3171
aI3172
aI3173
aI3174
aI3175
aI3176
aI3177
aI3178
aI3179
aI3180
aI3181
aI3182
aI3183
aI3184
aI3185
aI3186
aI3187
aI3188
aI3189
aI3190
aI3191
aI3192
aI3193
aI3194
aI3195
aI3196
aI3197
aI3198
aI3199
aI3200
aI3201
aI3202
aI3203
aI3204
aI3205
aI3206
aI3207
aI3208
aI3209
aI3210
aI3211
aI3212
aI3213
aI3214
aI3215
aI3216
aI3217
aI3218
aI3219
aI3220
aI3221
asI3166
(lp2890
sI3167
(lp2891
sI3168
(lp2892
sI3169
(lp2893
sI3170
(lp2894
sI3171
(lp2895
sI3172
(lp2896
sI3173
(lp2897
sI3174
(lp2898
sI3175
(lp2899
sI3176
(lp2900
sI3177
(lp2901
sI3178
(lp2902
sI3179
(lp2903
sI3180
(lp2904
sI3181
(lp2905
sI3182
(lp2906
sI3183
(lp2907
sI3184
(lp2908
sI3185
(lp2909
sI3186
(lp2910
sI3187
(lp2911
sI3188
(lp2912
sI3189
(lp2913
sI3190
(lp2914
sI3191
(lp2915
sI3192
(lp2916
sI3193
(lp2917
sI3194
(lp2918
sI3195
(lp2919
sI3196
(lp2920
sI3197
(lp2921
sI3198
(lp2922
sI3199
(lp2923
sI3200
(lp2924
sI3201
(lp2925
sI3202
(lp2926
sI3203
(lp2927
sI3204
(lp2928
sI3205
(lp2929
sI3206
(lp2930
sI3207
(lp2931
sI3208
(lp2932
sI3209
(lp2933
sI3210
(lp2934
sI3211
(lp2935
sI3212
(lp2936
sI3213
(lp2937
sI3214
(lp2938
sI3215
(lp2939
sI3216
(lp2940
sI3217
(lp2941
sI3218
(lp2942
sI3219
(lp2943
sI3220
(lp2944
sI3221
(lp2945
sI3222
(lp2946
I3223
aI3224
aI3225
aI3226
aI3227
aI3228
aI3229
aI3230
aI3231
aI3232
aI3233
aI3234
aI3235
aI3236
aI3237
aI3238
aI3239
aI3240
aI3241
aI3242
aI3243
aI3244
aI3245
aI3246
aI3247
aI3248
aI3249
aI3250
aI3251
aI3252
aI3253
aI3254
aI3255
aI3256
aI3257
aI3258
aI3259
aI3260
aI3261
aI3262
aI3263
aI3264
aI3265
aI3266
aI3267
aI3268
aI3269
aI3270
aI3271
aI3272
aI3273
aI3274
aI3275
aI3276
aI3277
aI3278
asI3223
(lp2947
sI3224
(lp2948
sI3225
(lp2949
sI3226
(lp2950
sI3227
(lp2951
sI3228
(lp2952
sI3229
(lp2953
sI3230
(lp2954
sI3231
(lp2955
sI3232
(lp2956
sI3233
(lp2957
sI3234
(lp2958
sI3235
(lp2959
sI3236
(lp2960
sI3237
(lp2961
sI3238
(lp2962
sI3239
(lp2963
sI3240
(lp2964
sI3241
(lp2965
sI3242
(lp2966
sI3243
(lp2967
sI3244
(lp2968
sI3245
(lp2969
sI3246
(lp2970
sI3247
(lp2971
sI3248
(lp2972
sI3249
(lp2973
sI3250
(lp2974
sI3251
(lp2975
sI3252
(lp2976
sI3253
(lp2977
sI3254
(lp2978
sI3255
(lp2979
sI3256
(lp2980
sI3257
(lp2981
sI3258
(lp2982
sI3259
(lp2983
sI3260
(lp2984
sI3261
(lp2985
sI3262
(lp2986
sI3263
(lp2987
sI3264
(lp2988
sI3265
(lp2989
sI3266
(lp2990
sI3267
(lp2991
sI3268
(lp2992
sI3269
(lp2993
sI3270
(lp2994
sI3271
(lp2995
sI3272
(lp2996
sI3273
(lp2997
sI3274
(lp2998
sI3275
(lp2999
sI3276
(lp3000
sI3277
(lp3001
sI3278
(lp3002
sI3279
(lp3003
I3280
aI3281
aI3282
aI3283
aI3284
aI3285
aI3286
aI3287
aI3288
aI3289
aI3290
aI3291
aI3292
aI3293
aI3294
aI3295
aI3296
aI3297
aI3298
aI3299
aI3300
aI3301
aI3302
aI3303
aI3304
aI3305
aI3306
aI3307
aI3308
aI3309
aI3310
aI3311
aI3312
aI3313
aI3314
aI3315
aI3316
aI3317
aI3318
aI3319
aI3320
aI3321
aI3322
aI3323
aI3324
aI3325
aI3326
aI3327
aI3328
aI3329
aI3330
aI3331
aI3332
aI3333
aI3334
aI3335
asI3280
(lp3004
sI3281
(lp3005
sI3282
(lp3006
sI3283
(lp3007
sI3284
(lp3008
sI3285
(lp3009
sI3286
(lp3010
sI3287
(lp3011
sI3288
(lp3012
sI3289
(lp3013
sI3290
(lp3014
sI3291
(lp3015
sI3292
(lp3016
sI3293
(lp3017
sI3294
(lp3018
sI3295
(lp3019
sI3296
(lp3020
sI3297
(lp3021
sI3298
(lp3022
sI3299
(lp3023
sI3300
(lp3024
sI3301
(lp3025
sI3302
(lp3026
sI3303
(lp3027
sI3304
(lp3028
sI3305
(lp3029
sI3306
(lp3030
sI3307
(lp3031
sI3308
(lp3032
sI3309
(lp3033
sI3310
(lp3034
sI3311
(lp3035
sI3312
(lp3036
sI3313
(lp3037
sI3314
(lp3038
sI3315
(lp3039
sI3316
(lp3040
sI3317
(lp3041
sI3318
(lp3042
sI3319
(lp3043
sI3320
(lp3044
sI3321
(lp3045
sI3322
(lp3046
sI3323
(lp3047
sI3324
(lp3048
sI3325
(lp3049
sI3326
(lp3050
sI3327
(lp3051
sI3328
(lp3052
sI3329
(lp3053
sI3330
(lp3054
sI3331
(lp3055
sI3332
(lp3056
sI3333
(lp3057
sI3334
(lp3058
sI3335
(lp3059
sI3336
(lp3060
I3337
aI3338
aI3339
aI3340
aI3341
aI3342
aI3343
aI3344
aI3345
aI3346
aI3347
aI3348
aI3349
aI3350
aI3351
aI3352
aI3353
aI3354
aI3355
aI3356
aI3357
aI3358
aI3359
aI3360
aI3361
aI3362
aI3363
aI3364
aI3365
aI3366
aI3367
aI3368
aI3369
aI3370
aI3371
aI3372
aI3373
aI3374
aI3375
aI3376
aI3377
aI3378
aI3379
aI3380
aI3381
aI3382
aI3383
aI3384
aI3385
aI3386
aI3387
aI3388
aI3389
aI3390
aI3391
aI3392
asI3337
(lp3061
sI3338
(lp3062
sI3339
(lp3063
sI3340
(lp3064
sI3341
(lp3065
sI3342
(lp3066
sI3343
(lp3067
sI3344
(lp3068
sI3345
(lp3069
sI3346
(lp3070
sI3347
(lp3071
sI3348
(lp3072
sI3349
(lp3073
sI3350
(lp3074
sI3351
(lp3075
sI3352
(lp3076
sI3353
(lp3077
sI3354
(lp3078
sI3355
(lp3079
sI3356
(lp3080
sI3357
(lp3081
sI3358
(lp3082
sI3359
(lp3083
sI3360
(lp3084
sI3361
(lp3085
sI3362
(lp3086
sI3363
(lp3087
sI3364
(lp3088
sI3365
(lp3089
sI3366
(lp3090
sI3367
(lp3091
sI3368
(lp3092
sI3369
(lp3093
sI3370
(lp3094
sI3371
(lp3095
sI3372
(lp3096
sI3373
(lp3097
sI3374
(lp3098
sI3375
(lp3099
sI3376
(lp3100
sI3377
(lp3101
sI3378
(lp3102
sI3379
(lp3103
sI3380
(lp3104
sI3381
(lp3105
sI3382
(lp3106
sI3383
(lp3107
sI3384
(lp3108
sI3385
(lp3109
sI3386
(lp3110
sI3387
(lp3111
sI3388
(lp3112
sI3389
(lp3113
sI3390
(lp3114
sI3391
(lp3115
sI3392
(lp3116
sI3393
(lp3117
I3394
aI3395
aI3396
aI3397
aI3398
aI3399
aI3400
aI3401
aI3402
aI3403
aI3404
aI3405
aI3406
aI3407
aI3408
aI3409
aI3410
aI3411
aI3412
aI3413
aI3414
aI3415
aI3416
aI3417
aI3418
aI3419
aI3420
aI3421
aI3422
aI3423
aI3424
aI3425
aI3426
aI3427
aI3428
aI3429
aI3430
aI3431
aI3432
aI3433
aI3434
aI3435
aI3436
aI3437
aI3438
aI3439
aI3440
aI3441
aI3442
aI3443
aI3444
aI3445
aI3446
aI3447
aI3448
aI3449
asI3394
(lp3118
sI3395
(lp3119
sI3396
(lp3120
sI3397
(lp3121
sI3398
(lp3122
sI3399
(lp3123
sI3400
(lp3124
sI3401
(lp3125
sI3402
(lp3126
sI3403
(lp3127
sI3404
(lp3128
sI3405
(lp3129
sI3406
(lp3130
sI3407
(lp3131
sI3408
(lp3132
sI3409
(lp3133
sI3410
(lp3134
sI3411
(lp3135
sI3412
(lp3136
sI3413
(lp3137
sI3414
(lp3138
sI3415
(lp3139
sI3416
(lp3140
sI3417
(lp3141
sI3418
(lp3142
sI3419
(lp3143
sI3420
(lp3144
sI3421
(lp3145
sI3422
(lp3146
sI3423
(lp3147
sI3424
(lp3148
sI3425
(lp3149
sI3426
(lp3150
sI3427
(lp3151
sI3428
(lp3152
sI3429
(lp3153
sI3430
(lp3154
sI3431
(lp3155
sI3432
(lp3156
sI3433
(lp3157
sI3434
(lp3158
sI3435
(lp3159
sI3436
(lp3160
sI3437
(lp3161
sI3438
(lp3162
sI3439
(lp3163
sI3440
(lp3164
sI3441
(lp3165
sI3442
(lp3166
sI3443
(lp3167
sI3444
(lp3168
sI3445
(lp3169
sI3446
(lp3170
sI3447
(lp3171
sI3448
(lp3172
sI3449
(lp3173
sI3450
(lp3174
I3451
aI3452
aI3453
aI3454
aI3455
aI3456
aI3457
aI3458
aI3459
aI3460
aI3461
aI3462
aI3463
aI3464
aI3465
aI3466
aI3467
aI3468
aI3469
aI3470
aI3471
aI3472
aI3473
aI3474
aI3475
aI3476
aI3477
aI3478
aI3479
aI3480
aI3481
aI3482
aI3483
aI3484
aI3485
aI3486
aI3487
aI3488
aI3489
aI3490
aI3491
aI3492
aI3493
aI3494
aI3495
aI3496
aI3497
aI3498
aI3499
aI3500
aI3501
aI3502
aI3503
aI3504
aI3505
aI3506
asI3451
(lp3175
sI3452
(lp3176
sI3453
(lp3177
sI3454
(lp3178
sI3455
(lp3179
sI3456
(lp3180
sI3457
(lp3181
sI3458
(lp3182
sI3459
(lp3183
sI3460
(lp3184
sI3461
(lp3185
sI3462
(lp3186
sI3463
(lp3187
sI3464
(lp3188
sI3465
(lp3189
sI3466
(lp3190
sI3467
(lp3191
sI3468
(lp3192
sI3469
(lp3193
sI3470
(lp3194
sI3471
(lp3195
sI3472
(lp3196
sI3473
(lp3197
sI3474
(lp3198
sI3475
(lp3199
sI3476
(lp3200
sI3477
(lp3201
sI3478
(lp3202
sI3479
(lp3203
sI3480
(lp3204
sI3481
(lp3205
sI3482
(lp3206
sI3483
(lp3207
sI3484
(lp3208
sI3485
(lp3209
sI3486
(lp3210
sI3487
(lp3211
sI3488
(lp3212
sI3489
(lp3213
sI3490
(lp3214
sI3491
(lp3215
sI3492
(lp3216
sI3493
(lp3217
sI3494
(lp3218
sI3495
(lp3219
sI3496
(lp3220
sI3497
(lp3221
sI3498
(lp3222
sI3499
(lp3223
sI3500
(lp3224
sI3501
(lp3225
sI3502
(lp3226
sI3503
(lp3227
sI3504
(lp3228
sI3505
(lp3229
sI3506
(lp3230
sI3507
(lp3231
I3508
aI3509
aI3510
aI3511
aI3512
aI3513
aI3514
aI3515
aI3516
aI3517
aI3518
aI3519
aI3520
aI3521
aI3522
aI3523
aI3524
aI3525
aI3526
aI3527
aI3528
aI3529
aI3530
aI3531
aI3532
aI3533
aI3534
aI3535
aI3536
aI3537
aI3538
aI3539
aI3540
aI3541
aI3542
aI3543
aI3544
aI3545
aI3546
aI3547
aI3548
aI3549
aI3550
aI3551
aI3552
aI3553
aI3554
aI3555
aI3556
aI3557
aI3558
aI3559
aI3560
aI3561
aI3562
aI3563
asI3508
(lp3232
sI3509
(lp3233
sI3510
(lp3234
sI3511
(lp3235
sI3512
(lp3236
sI3513
(lp3237
sI3514
(lp3238
sI3515
(lp3239
sI3516
(lp3240
sI3517
(lp3241
sI3518
(lp3242
sI3519
(lp3243
sI3520
(lp3244
sI3521
(lp3245
sI3522
(lp3246
sI3523
(lp3247
sI3524
(lp3248
sI3525
(lp3249
sI3526
(lp3250
sI3527
(lp3251
sI3528
(lp3252
sI3529
(lp3253
sI3530
(lp3254
sI3531
(lp3255
sI3532
(lp3256
sI3533
(lp3257
sI3534
(lp3258
sI3535
(lp3259
sI3536
(lp3260
sI3537
(lp3261
sI3538
(lp3262
sI3539
(lp3263
sI3540
(lp3264
sI3541
(lp3265
sI3542
(lp3266
sI3543
(lp3267
sI3544
(lp3268
sI3545
(lp3269
sI3546
(lp3270
sI3547
(lp3271
sI3548
(lp3272
sI3549
(lp3273
sI3550
(lp3274
sI3551
(lp3275
sI3552
(lp3276
sI3553
(lp3277
sI3554
(lp3278
sI3555
(lp3279
sI3556
(lp3280
sI3557
(lp3281
sI3558
(lp3282
sI3559
(lp3283
sI3560
(lp3284
sI3561
(lp3285
sI3562
(lp3286
sI3563
(lp3287
sI3564
(lp3288
I3565
aI3566
aI3567
aI3568
aI3569
aI3570
aI3571
aI3572
aI3573
aI3574
aI3575
aI3576
aI3577
aI3578
aI3579
aI3580
aI3581
aI3582
aI3583
aI3584
aI3585
aI3586
aI3587
aI3588
aI3589
aI3590
aI3591
aI3592
aI3593
aI3594
aI3595
aI3596
aI3597
aI3598
aI3599
aI3600
aI3601
aI3602
aI3603
aI3604
aI3605
aI3606
aI3607
aI3608
aI3609
aI3610
aI3611
aI3612
aI3613
aI3614
aI3615
aI3616
aI3617
aI3618
aI3619
aI3620
asI3565
(lp3289
sI3566
(lp3290
sI3567
(lp3291
sI3568
(lp3292
sI3569
(lp3293
sI3570
(lp3294
sI3571
(lp3295
sI3572
(lp3296
sI3573
(lp3297
sI3574
(lp3298
sI3575
(lp3299
sI3576
(lp3300
sI3577
(lp3301
sI3578
(lp3302
sI3579
(lp3303
sI3580
(lp3304
sI3581
(lp3305
sI3582
(lp3306
sI3583
(lp3307
sI3584
(lp3308
sI3585
(lp3309
sI3586
(lp3310
sI3587
(lp3311
sI3588
(lp3312
sI3589
(lp3313
sI3590
(lp3314
sI3591
(lp3315
sI3592
(lp3316
sI3593
(lp3317
sI3594
(lp3318
sI3595
(lp3319
sI3596
(lp3320
sI3597
(lp3321
sI3598
(lp3322
sI3599
(lp3323
sI3600
(lp3324
sI3601
(lp3325
sI3602
(lp3326
sI3603
(lp3327
sI3604
(lp3328
sI3605
(lp3329
sI3606
(lp3330
sI3607
(lp3331
sI3608
(lp3332
sI3609
(lp3333
sI3610
(lp3334
sI3611
(lp3335
sI3612
(lp3336
sI3613
(lp3337
sI3614
(lp3338
sI3615
(lp3339
sI3616
(lp3340
sI3617
(lp3341
sI3618
(lp3342
sI3619
(lp3343
sI3620
(lp3344
sI3621
(lp3345
I3947
aI3948
aI3949
aI3950
aI3951
aI3952
aI3953
aI3954
aI3955
aI3956
aI3957
aI3958
aI3959
aI3960
aI3961
aI3962
aI3963
aI3964
aI3965
aI3966
aI3967
aI3968
aI3969
aI3970
aI3993
aI3995
aI3996
asI3622
(lp3346
sI3623
(lp3347
I3624
aI3747
aI3748
aI3749
asI3624
(lp3348
I3625
aI3626
aI3627
aI3628
aI3629
aI3630
aI3631
aI3632
aI3633
aI3634
aI3635
aI3636
aI3637
aI3638
aI3639
aI3640
aI3641
aI3642
aI3643
aI3644
aI3645
aI3646
aI3647
aI3648
aI3649
aI3650
aI3651
aI3652
aI3653
aI3654
aI3655
aI3656
aI3657
aI3658
aI3659
aI3660
aI3661
aI3662
aI3663
aI3664
aI3665
aI3666
aI3667
aI3668
aI3669
aI3670
aI3671
aI3672
aI3673
aI3674
aI3675
aI3676
aI3677
aI3678
aI3679
aI3680
aI3681
aI3682
aI3683
aI3684
aI3685
aI3686
aI3687
aI3688
aI3689
aI3690
aI3691
aI3692
aI3693
aI3694
aI3695
aI3696
aI3697
aI3698
aI3699
aI3700
aI3701
aI3702
aI3703
aI3704
aI3705
aI3706
aI3707
aI3708
aI3709
aI3710
aI3711
aI3712
aI3713
aI3714
aI3715
aI3716
aI3717
aI3718
aI3719
aI3720
aI3721
aI3722
aI3723
aI3724
aI3725
aI3726
aI3727
aI3728
aI3729
aI3730
aI3731
aI3732
aI3733
aI3734
aI3735
aI3736
aI3737
aI3738
aI3739
aI3740
aI3741
aI3742
aI3743
aI3744
aI3745
aI3746
asI3625
(lp3349
sI3626
(lp3350
sI3627
(lp3351
sI3628
(lp3352
sI3629
(lp3353
sI3630
(lp3354
sI3631
(lp3355
sI3632
(lp3356
sI3633
(lp3357
sI3634
(lp3358
sI3635
(lp3359
sI3636
(lp3360
sI3637
(lp3361
sI3638
(lp3362
sI3639
(lp3363
sI3640
(lp3364
sI3641
(lp3365
sI3642
(lp3366
sI3643
(lp3367
sI3644
(lp3368
sI3645
(lp3369
sI3646
(lp3370
sI3647
(lp3371
sI3648
(lp3372
sI3649
(lp3373
sI3650
(lp3374
sI3651
(lp3375
sI3652
(lp3376
sI3653
(lp3377
sI3654
(lp3378
sI3655
(lp3379
sI3656
(lp3380
sI3657
(lp3381
sI3658
(lp3382
sI3659
(lp3383
sI3660
(lp3384
sI3661
(lp3385
sI3662
(lp3386
sI3663
(lp3387
sI3664
(lp3388
sI3665
(lp3389
sI3666
(lp3390
sI3667
(lp3391
sI3668
(lp3392
sI3669
(lp3393
sI3670
(lp3394
sI3671
(lp3395
sI3672
(lp3396
sI3673
(lp3397
sI3674
(lp3398
sI3675
(lp3399
sI3676
(lp3400
sI3677
(lp3401
sI3678
(lp3402
sI3679
(lp3403
sI3680
(lp3404
sI3681
(lp3405
sI3682
(lp3406
sI3683
(lp3407
sI3684
(lp3408
sI3685
(lp3409
sI3686
(lp3410
sI3687
(lp3411
sI3688
(lp3412
sI3689
(lp3413
sI3690
(lp3414
sI3691
(lp3415
sI3692
(lp3416
sI3693
(lp3417
sI3694
(lp3418
sI3695
(lp3419
sI3696
(lp3420
sI3697
(lp3421
sI3698
(lp3422
sI3699
(lp3423
sI3700
(lp3424
sI3701
(lp3425
sI3702
(lp3426
sI3703
(lp3427
sI3704
(lp3428
sI3705
(lp3429
sI3706
(lp3430
sI3707
(lp3431
sI3708
(lp3432
sI3709
(lp3433
sI3710
(lp3434
sI3711
(lp3435
sI3712
(lp3436
sI3713
(lp3437
sI3714
(lp3438
sI3715
(lp3439
sI3716
(lp3440
sI3717
(lp3441
sI3718
(lp3442
sI3719
(lp3443
sI3720
(lp3444
sI3721
(lp3445
sI3722
(lp3446
sI3723
(lp3447
sI3724
(lp3448
sI3725
(lp3449
sI3726
(lp3450
sI3727
(lp3451
sI3728
(lp3452
sI3729
(lp3453
sI3730
(lp3454
sI3731
(lp3455
sI3732
(lp3456
sI3733
(lp3457
sI3734
(lp3458
sI3735
(lp3459
sI3736
(lp3460
sI3737
(lp3461
sI3738
(lp3462
sI3739
(lp3463
sI3740
(lp3464
sI3741
(lp3465
sI3742
(lp3466
sI3743
(lp3467
sI3744
(lp3468
sI3745
(lp3469
sI3746
(lp3470
sI3747
(lp3471
sI3748
(lp3472
sI3749
(lp3473
sI3756
(lp3474
sI3757
(lp3475
sI3758
(lp3476
I3759
aI3760
asI3759
(lp3477
sI3760
(lp3478
sI3761
(lp3479
I3762
asI3762
(lp3480
sI3763
(lp3481
sI3764
(lp3482
I3765
aI3768
asI3765
(lp3483
I3766
aI3767
asI3766
(lp3484
sI3767
(lp3485
sI3768
(lp3486
I3769
aI3770
asI3769
(lp3487
sI3770
(lp3488
sI3771
(lp3489
sI3772
(lp3490
sI3773
(lp3491
sI3774
(lp3492
I3775
aI3776
aI3777
aI3778
aI3779
aI3782
aI3783
aI3785
aI3787
aI3788
aI3789
aI3790
aI3791
aI3794
aI3795
aI3796
aI3797
aI3798
aI3799
aI3802
aI3804
aI3805
asI3775
(lp3493
sI3776
(lp3494
sI3777
(lp3495
sI3778
(lp3496
sI3779
(lp3497
sI3782
(lp3498
sI3783
(lp3499
sI3785
(lp3500
sI3787
(lp3501
sI3788
(lp3502
sI3789
(lp3503
sI3790
(lp3504
sI3791
(lp3505
sI3794
(lp3506
sI3795
(lp3507
sI3796
(lp3508
sI3797
(lp3509
sI3798
(lp3510
sI3799
(lp3511
sI3802
(lp3512
sI3804
(lp3513
sI3805
(lp3514
sI3815
(lp3515
sI3816
(lp3516
sI3817
(lp3517
sI3818
(lp3518
I3819
aI3820
aI3821
aI3822
asI3819
(lp3519
sI3820
(lp3520
sI3821
(lp3521
sI3822
(lp3522
sI3823
(lp3523
I3824
aI3903
aI3904
asI3824
(lp3524
I3825
aI3826
aI3827
aI3828
aI3829
aI3830
aI3831
aI3832
aI3833
aI3834
aI3835
aI3836
aI3837
aI3838
aI3839
aI3840
aI3841
aI3842
aI3843
aI3844
aI3845
aI3846
aI3847
aI3848
aI3849
aI3850
aI3851
aI3852
aI3853
aI3854
aI3855
aI3856
aI3857
aI3858
aI3859
aI3860
aI3861
aI3862
aI3863
aI3864
aI3865
aI3866
aI3867
aI3868
aI3869
aI3870
aI3871
aI3872
aI3873
aI3874
aI3875
aI3876
aI3877
aI3878
aI3879
aI3880
aI3881
aI3882
aI3883
aI3884
aI3885
aI3886
aI3887
aI3888
aI3889
aI3890
aI3891
aI3892
aI3893
aI3894
aI3895
aI3896
aI3897
aI3898
aI3899
aI3900
aI3901
aI3902
aI3989
asI3825
(lp3525
sI3826
(lp3526
sI3827
(lp3527
sI3828
(lp3528
sI3829
(lp3529
sI3830
(lp3530
sI3831
(lp3531
sI3832
(lp3532
sI3833
(lp3533
sI3834
(lp3534
sI3835
(lp3535
sI3836
(lp3536
sI3837
(lp3537
sI3838
(lp3538
sI3839
(lp3539
sI3840
(lp3540
sI3841
(lp3541
sI3842
(lp3542
sI3843
(lp3543
sI3844
(lp3544
sI3845
(lp3545
sI3846
(lp3546
sI3847
(lp3547
sI3848
(lp3548
sI3849
(lp3549
sI3850
(lp3550
sI3851
(lp3551
sI3852
(lp3552
sI3853
(lp3553
sI3854
(lp3554
sI3855
(lp3555
sI3856
(lp3556
sI3857
(lp3557
sI3858
(lp3558
sI3859
(lp3559
sI3860
(lp3560
sI3861
(lp3561
sI3862
(lp3562
sI3863
(lp3563
sI3864
(lp3564
sI3865
(lp3565
sI3866
(lp3566
sI3867
(lp3567
sI3868
(lp3568
sI3869
(lp3569
sI3870
(lp3570
sI3871
(lp3571
sI3872
(lp3572
sI3873
(lp3573
sI3874
(lp3574
sI3875
(lp3575
sI3876
(lp3576
sI3877
(lp3577
sI3878
(lp3578
sI3879
(lp3579
sI3880
(lp3580
sI3881
(lp3581
sI3882
(lp3582
sI3883
(lp3583
sI3884
(lp3584
sI3885
(lp3585
sI3886
(lp3586
sI3887
(lp3587
sI3888
(lp3588
sI3889
(lp3589
sI3890
(lp3590
sI3891
(lp3591
sI3892
(lp3592
sI3893
(lp3593
sI3894
(lp3594
sI3895
(lp3595
sI3896
(lp3596
sI3897
(lp3597
sI3898
(lp3598
sI3899
(lp3599
sI3900
(lp3600
sI3901
(lp3601
sI3902
(lp3602
sI3903
(lp3603
sI3904
(lp3604
sI3905
(lp3605
sI3906
(lp3606
sI3914
(lp3607
sI3917
(lp3608
sI3918
(lp3609
sI3919
(lp3610
sI3920
(lp3611
I3921
aI3922
aI3925
aI3926
aI3927
aI3928
aI3929
aI3930
aI3931
aI3932
aI3933
aI3934
aI3936
aI3937
aI3938
aI3939
aI3940
aI3941
aI3942
aI3943
aI3944
aI3982
aI3983
aI3984
aI3985
aI3986
aI3987
asI3921
(lp3612
sI3922
(lp3613
sI3923
(lp3614
sI3924
(lp3615
sI3925
(lp3616
sI3926
(lp3617
sI3927
(lp3618
sI3928
(lp3619
sI3929
(lp3620
sI3930
(lp3621
sI3931
(lp3622
sI3932
(lp3623
sI3933
(lp3624
sI3934
(lp3625
sI3935
(lp3626
sI3936
(lp3627
sI3937
(lp3628
sI3938
(lp3629
sI3939
(lp3630
sI3940
(lp3631
sI3941
(lp3632
sI3942
(lp3633
sI3943
(lp3634
sI3944
(lp3635
sI3945
(lp3636
sI3946
(lp3637
I4000
aI4050
asI3947
(lp3638
sI3948
(lp3639
sI3949
(lp3640
sI3950
(lp3641
sI3951
(lp3642
sI3952
(lp3643
sI3953
(lp3644
sI3954
(lp3645
sI3955
(lp3646
sI3956
(lp3647
sI3957
(lp3648
sI3958
(lp3649
sI3959
(lp3650
sI3960
(lp3651
sI3961
(lp3652
sI3962
(lp3653
sI3963
(lp3654
sI3964
(lp3655
sI3965
(lp3656
sI3966
(lp3657
sI3967
(lp3658
sI3968
(lp3659
sI3969
(lp3660
sI3970
(lp3661
sI3971
(lp3662
sI3972
(lp3663
sI3973
(lp3664
sI3974
(lp3665
sI3975
(lp3666
sI3976
(lp3667
sI3977
(lp3668
sI3978
(lp3669
sI3979
(lp3670
sI3980
(lp3671
sI3981
(lp3672
sI3982
(lp3673
sI3983
(lp3674
sI3984
(lp3675
sI3985
(lp3676
sI3986
(lp3677
sI3987
(lp3678
sI3988
(lp3679
sI3989
(lp3680
sI3990
(lp3681
sI3991
(lp3682
sI3992
(lp3683
sI3993
(lp3684
sI3994
(lp3685
sI3995
(lp3686
sI3996
(lp3687
sI3997
(lp3688
sI3998
(lp3689
sI3999
(lp3690
sI4000
(lp3691
sI4001
(lp3692
sI4002
(lp3693
sI4003
(lp3694
I4004
asI4004
(lp3695
I4005
aI4006
aI4007
aI4008
aI4009
aI4010
aI4011
aI4012
aI4013
aI4014
aI4015
aI4016
aI4017
aI4018
asI4005
(lp3696
sI4006
(lp3697
sI4007
(lp3698
sI4008
(lp3699
sI4009
(lp3700
sI4010
(lp3701
sI4011
(lp3702
sI4012
(lp3703
sI4013
(lp3704
sI4014
(lp3705
sI4015
(lp3706
sI4016
(lp3707
sI4017
(lp3708
sI4018
(lp3709
sI4019
(lp3710
sI4020
(lp3711
sI4021
(lp3712
sI4022
(lp3713
sI4023
(lp3714
sI4024
(lp3715
sI4025
(lp3716
sI4026
(lp3717
sI4027
(lp3718
sI4028
(lp3719
sI4029
(lp3720
sI4030
(lp3721
sI4031
(lp3722
sI4032
(lp3723
sI4033
(lp3724
sI4034
(lp3725
sI4035
(lp3726
sI4036
(lp3727
sI4037
(lp3728
sI4038
(lp3729
sI4039
(lp3730
sI4040
(lp3731
sI4041
(lp3732
sI4042
(lp3733
sI4043
(lp3734
I4045
asI4044
(lp3735
sI4045
(lp3736
I4046
aI4048
asI4046
(lp3737
I4047
asI4047
(lp3738
sI4048
(lp3739
I4049
asI4049
(lp3740
sI4050
(lp3741
I4051
asI4051
(lp3742
I4052
asI4052
(lp3743
sI4053
(lp3744
sI4054
(lp3745
I4057
aI4058
aI4059
aI4060
aI4088
asI4057
(lp3746
sI4058
(lp3747
sI4059
(lp3748
sI4060
(lp3749
sI4061
(lp3750
sI4062
(lp3751
sI4063
(lp3752
I4066
aI4067
aI4068
aI4069
aI4071
asI4066
(lp3753
sI4067
(lp3754
sI4068
(lp3755
sI4069
(lp3756
sI4070
(lp3757
sI4071
(lp3758
I4072
asI4072
(lp3759
I4073
aI4074
aI4075
aI4076
aI4077
aI4078
aI4079
aI4080
aI4081
aI4082
aI4083
asI4073
(lp3760
sI4074
(lp3761
sI4075
(lp3762
sI4076
(lp3763
sI4077
(lp3764
sI4078
(lp3765
sI4079
(lp3766
sI4080
(lp3767
sI4081
(lp3768
sI4082
(lp3769
sI4083
(lp3770
sI4084
(lp3771
sI4085
(lp3772
sI4086
(lp3773
sI4087
(lp3774
sI4088
(lp3775
I4089
aI4107
asI4089
(lp3776
I4090
aI4091
aI4092
aI4093
aI4094
aI4095
aI4096
aI4097
aI4098
aI4099
aI4100
aI4101
aI4102
aI4103
aI4104
aI4105
aI4106
aI4122
asI4090
(lp3777
sI4091
(lp3778
sI4092
(lp3779
sI4093
(lp3780
sI4094
(lp3781
sI4095
(lp3782
sI4096
(lp3783
sI4097
(lp3784
sI4098
(lp3785
sI4099
(lp3786
sI4100
(lp3787
sI4101
(lp3788
sI4102
(lp3789
sI4103
(lp3790
sI4104
(lp3791
sI4105
(lp3792
sI4106
(lp3793
sI4107
(lp3794
I4108
aI4109
aI4110
aI4111
aI4112
aI4113
aI4114
aI4115
aI4116
aI4117
aI4118
aI4119
aI4120
aI4121
asI4108
(lp3795
sI4109
(lp3796
sI4110
(lp3797
sI4111
(lp3798
sI4112
(lp3799
sI4113
(lp3800
sI4114
(lp3801
sI4115
(lp3802
sI4116
(lp3803
sI4117
(lp3804
sI4118
(lp3805
sI4119
(lp3806
sI4120
(lp3807
sI4121
(lp3808
sI4122
(lp3809
sI4123
(lp3810
sI4124
(lp3811
sI4125
(lp3812
sI4126
(lp3813
sI4127
(lp3814
sI4128
(lp3815
sI4129
(lp3816
sI4130
(lp3817
sI4131
(lp3818
sI4132
(lp3819
sI4133
(lp3820
sI2602
(lp3821
s.