(dp0
I3974
(lp1
(I3917
I-1
tp2
asI3975
(lp3
(I3917
I-1
tp4
asI3977
(lp5
(I3917
I-1
tp6
asI3980
(lp7
(I3917
I-1
tp8
asI3984
(lp9
(I3924
I-1
tp10
asI3986
(lp11
(I3988
I-1
tp12
asI2067
(lp13
(I1522
I-1
tp14
a(I1667
I-1
tp15
a(I1889
I-1
tp16
a(I1980
I-1
tp17
asI2069
(lp18
(I2071
I-1
tp19
asI3991
(lp20
(I3971
I-1
tp21
a(I3973
I-1
tp22
a(I3974
I-1
tp23
a(I3975
I-1
tp24
a(I3976
I-1
tp25
a(I3977
I-1
tp26
a(I3980
I-1
tp27
a(I3992
I-1
tp28
asI2072
(lp29
(I2073
I-1
tp30
asI2074
(lp31
(I2071
I-1
tp32
asI2075
(lp33
(I2071
I-1
tp34
asI2076
(lp35
(I2077
I-1
tp36
asI2078
(lp37
(I2079
I-1
tp38
asI2080
(lp39
(I2073
I-1
tp40
asI2081
(lp41
(I2079
I-1
tp42
asI2082
(lp43
(I2079
I-1
tp44
asI2083
(lp45
(I2071
I-1
tp46
asI2084
(lp47
(I2073
I-1
tp48
asI2085
(lp49
(I2077
I-1
tp50
asI2086
(lp51
(I2079
I-1
tp52
asI2087
(lp53
(I2088
I-1
tp54
asI2089
(lp55
(I2079
I-1
tp56
asI2090
(lp57
(I2077
I-1
tp58
asI2092
(lp59
(I2069
I-1
tp60
a(I2072
I-1
tp61
a(I2074
I-1
tp62
a(I2075
I-1
tp63
a(I2076
I-1
tp64
a(I2078
I-1
tp65
a(I2080
I-1
tp66
a(I2081
I-1
tp67
a(I2082
I-1
tp68
a(I2083
I-1
tp69
a(I2084
I-1
tp70
a(I2085
I-1
tp71
a(I2086
I-1
tp72
a(I2087
I-1
tp73
a(I2089
I-1
tp74
a(I2090
I-1
tp75
asI4062
(lp76
(I2013
I-1
tp77
a(I2007
I-1
tp78
asI3921
(lp79
(I3917
I-1
tp80
a(I3975
I-1
tp81
a(I3977
I-1
tp82
asI3922
(lp83
(I3923
I-1
tp84
a(I3924
I-1
tp85
a(I3978
I-1
tp86
a(I4133
I-1
tp87
asI4051
(lp88
(I4049
I-1
tp89
asI3925
(lp90
(I3918
I-1
tp91
a(I3979
I-1
tp92
asI2012
(lp93
(I3946
I-1
tp94
asI2013
(lp95
(I2007
I-1
tp96
a(I2008
I-1
tp97
a(I2030
I-1
tp98
a(I2007
I-1
tp99
a(I2008
I-1
tp100
a(I2030
I-1
tp101
a(I4054
I-1
tp102
a(I4063
I-1
tp103
a(I2007
I-1
tp104
a(I2007
I-1
tp105
a(I2008
I-1
tp106
a(I2030
I-1
tp107
a(I4054
I-1
tp108
a(I4063
I-1
tp109
asI3934
(lp110
(I3935
I-1
tp111
asI4049
(lp112
(I2013
I-1
tp113
a(I3946
I-1
tp114
asI2037
(lp115
(I2010
I-1
tp116
asI4053
(lp117
(I2013
I-1
tp118
a(I2007
I-1
tp119
as.