(dp0
I0
L0L
sI1
L14317L
sI2
L15694L
sI3
L17123L
sI4
L21149L
sI5
L25059L
sI6
L29048L
sI7
L31354L
sI8
L35196L
sI9
L38883L
sI10
L42857L
sI11
L46342L
sI12
L49889L
sI13
L53413L
sI14
L56884L
sI15
L60336L
sI16
L63807L
sI17
L67278L
sI18
L70744L
sI19
L74239L
sI20
L77754L
sI21
L81293L
sI22
L84773L
sI23
L88245L
sI24
L91808L
sI25
L95317L
sI26
L98835L
sI27
L102333L
sI28
L105829L
sI29
L109368L
sI30
L112915L
sI31
L116442L
sI32
L119971L
sI33
L123490L
sI34
L126976L
sI35
L130497L
sI36
L133979L
sI37
L137485L
sI38
L141014L
sI39
L144563L
sI40
L148078L
sI41
L151598L
sI42
L155108L
sI43
L158613L
sI44
L162095L
sI45
L165557L
sI46
L169004L
sI47
L172544L
sI48
L176064L
sI49
L179530L
sI50
L182991L
sI51
L186480L
sI52
L189942L
sI53
L193653L
sI54
L197199L
sI55
L201152L
sI56
L204841L
sI57
L208757L
sI58
L212702L
sI59
L216581L
sI60
L220433L
sI61
L224274L
sI62
L227751L
sI63
L231290L
sI64
L235189L
sI65
L239060L
sI66
L242606L
sI67
L246093L
sI68
L249802L
sI69
L253560L
sI70
L257283L
sI71
L261055L
sI72
L264879L
sI73
L268387L
sI74
L271863L
sI75
L275526L
sI76
L279160L
sI77
L282608L
sI78
L286286L
sI79
L289654L
sI80
L293203L
sI81
L296774L
sI82
L300397L
sI83
L303899L
sI84
L307443L
sI85
L311237L
sI86
L314801L
sI87
L318369L
sI88
L321950L
sI89
L325509L
sI90
L329103L
sI91
L332815L
sI92
L336374L
sI93
L339943L
sI94
L343619L
sI95
L347272L
sI96
L351095L
sI97
L354822L
sI98
L358481L
sI99
L361975L
sI100
L365474L
sI101
L369242L
sI102
L372710L
sI103
L376561L
sI104
L380134L
sI105
L383576L
sI106
L387013L
sI107
L390454L
sI108
L393935L
sI109
L397501L
sI110
L400972L
sI111
L404405L
sI112
L408044L
sI113
L411686L
sI114
L415332L
sI115
L419058L
sI116
L422652L
sI117
L426133L
sI118
L429993L
sI119
L433440L
sI120
L437073L
sI121
L440736L
sI122
L444211L
sI123
L447653L
sI124
L451343L
sI125
L455000L
sI126
L458667L
sI127
L462518L
sI128
L466570L
sI129
L470423L
sI130
L473933L
sI131
L477385L
sI132
L481076L
sI133
L484588L
sI134
L488463L
sI135
L492518L
sI136
L495975L
sI137
L499556L
sI138
L503032L
sI139
L506586L
sI140
L510053L
sI141
L513481L
sI142
L517038L
sI143
L520686L
sI144
L524384L
sI145
L528045L
sI146
L531712L
sI147
L535303L
sI148
L538856L
sI149
L542384L
sI150
L545985L
sI151
L549557L
sI152
L553144L
sI153
L556784L
sI154
L560502L
sI155
L563973L
sI156
L567794L
sI157
L571392L
sI158
L575260L
sI159
L578764L
sI160
L582828L
sI161
L586295L
sI162
L590085L
sI163
L593536L
sI164
L596978L
sI165
L600465L
sI166
L603902L
sI167
L607349L
sI168
L610840L
sI169
L614296L
sI170
L617747L
sI171
L621213L
sI172
L624660L
sI173
L628137L
sI174
L631686L
sI175
L635128L
sI176
L638570L
sI177
L642022L
sI178
L645458L
sI179
L648924L
sI180
L652395L
sI181
L656365L
sI182
L660388L
sI183
L663969L
sI184
L667727L
sI185
L671391L
sI186
L675121L
sI187
L678819L
sI188
L682294L
sI189
L685749L
sI190
L689724L
sI191
L693224L
sI192
L696675L
sI193
L700116L
sI194
L703841L
sI195
L707341L
sI196
L710802L
sI197
L714364L
sI198
L718011L
sI199
L721651L
sI200
L725303L
sI201
L728914L
sI202
L732544L
sI203
L736181L
sI204
L740031L
sI205
L743714L
sI206
L747266L
sI207
L750742L
sI208
L754348L
sI209
L758097L
sI210
L761982L
sI211
L765590L
sI212
L769199L
sI213
L772743L
sI214
L776204L
sI215
L779908L
sI216
L783462L
sI217
L786946L
sI218
L790456L
sI219
L793940L
sI220
L797594L
sI221
L801195L
sI222
L805179L
sI223
L808841L
sI224
L812483L
sI225
L816246L
sI226
L820000L
sI227
L823625L
sI228
L827203L
sI229
L830695L
sI230
L834906L
sI231
L838516L
sI232
L842214L
sI233
L845804L
sI234
L849563L
sI235
L853020L
sI236
L856961L
sI237
L860437L
sI238
L863951L
sI239
L867485L
sI240
L871162L
sI241
L874643L
sI242
L878105L
sI243
L881650L
sI244
L885309L
sI245
L889121L
sI246
L892850L
sI247
L896560L
sI248
L900280L
sI249
L904005L
sI250
L907693L
sI251
L911138L
sI252
L914797L
sI253
L918478L
sI254
L922141L
sI255
L925577L
sI256
L929042L
sI257
L932844L
sI258
L936563L
sI259
L940062L
sI260
L943757L
sI261
L947442L
sI262
L950931L
sI263
L954584L
sI264
L958258L
sI265
L961940L
sI266
L965656L
sI267
L969324L
sI268
L972819L
sI269
L976343L
sI270
L979823L
sI271
L983465L
sI272
L987131L
sI273
L990799L
sI274
L994477L
sI275
L998160L
sI276
L1001651L
sI277
L1005435L
sI278
L1009491L
sI279
L1013189L
sI280
L1016727L
sI281
L1020251L
sI282
L1023692L
sI283
L1027167L
sI284
L1030682L
sI285
L1034207L
sI286
L1037717L
sI287
L1041178L
sI288
L1044649L
sI289
L1048139L
sI290
L1051601L
sI291
L1055236L
sI292
L1058707L
sI293
L1062579L
sI294
L1066495L
sI295
L1070337L
sI296
L1074179L
sI297
L1078033L
sI298
L1081482L
sI299
L1085170L
sI300
L1088838L
sI301
L1092584L
sI302
L1096142L
sI303
L1099776L
sI304
L1103473L
sI305
L1106931L
sI306
L1110524L
sI307
L1114117L
sI308
L1117969L
sI309
L1121439L
sI310
L1125190L
sI311
L1128816L
sI312
L1132563L
sI313
L1136174L
sI314
L1140110L
sI315
L1143764L
sI316
L1147205L
sI317
L1150670L
sI318
L1154286L
sI319
L1157718L
sI320
L1161334L
sI321
L1164776L
sI322
L1168321L
sI323
L1171996L
sI324
L1175531L
sI325
L1179132L
sI326
L1182748L
sI327
L1186364L
sI328
L1189975L
sI329
L1193513L
sI330
L1197249L
sI331
L1200700L
sI332
L1204700L
sI333
L1208354L
sI334
L1212053L
sI335
L1215705L
sI336
L1219373L
sI337
L1222892L
sI338
L1226715L
sI339
L1230210L
sI340
L1233823L
sI341
L1237353L
sI342
L1240844L
sI343
L1244532L
sI344
L1248204L
sI345
L1251871L
sI346
L1255684L
sI347
L1259237L
sI348
L1262728L
sI349
L1266301L
sI350
L1270268L
sI351
L1273835L
sI352
L1277639L
sI353
L1281263L
sI354
L1284933L
sI355
L1288490L
sI356
L1292067L
sI357
L1295811L
sI358
L1299248L
sI359
L1303309L
sI360
L1306806L
sI361
L1310311L
sI362
L1314038L
sI363
L1317788L
sI364
L1321485L
sI365
L1325287L
sI366
L1328836L
sI367
L1332553L
sI368
L1336224L
sI369
L1339896L
sI370
L1343501L
sI371
L1346977L
sI372
L1350458L
sI373
L1353950L
sI374
L1357628L
sI375
L1361177L
sI376
L1364790L
sI377
L1368643L
sI378
L1372424L
sI379
L1376393L
sI380
L1380017L
sI381
L1383508L
sI382
L1387265L
sI383
L1390936L
sI384
L1394489L
sI385
L1397937L
sI386
L1401495L
sI387
L1405038L
sI388
L1408536L
sI389
L1412019L
sI390
L1415491L
sI391
L1419035L
sI392
L1422518L
sI393
L1426098L
sI394
L1429561L
sI395
L1432999L
sI396
L1436437L
sI397
L1439920L
sI398
L1443383L
sI399
L1446851L
sI400
L1450319L
sI401
L1453821L
sI402
L1457366L
sI403
L1460844L
sI404
L1464297L
sI405
L1467862L
sI406
L1471320L
sI407
L1474798L
sI408
L1478251L
sI409
L1481724L
sI410
L1485172L
sI411
L1488615L
sI412
L1492669L
sI413
L1496130L
sI414
L1499801L
sI415
L1503486L
sI416
L1507044L
sI417
L1510731L
sI418
L1514352L
sI419
L1517933L
sI420
L1521360L
sI421
L1524851L
sI422
L1528316L
sI423
L1532011L
sI424
L1535514L
sI425
L1539268L
sI426
L1543034L
sI427
L1546763L
sI428
L1550540L
sI429
L1554298L
sI430
L1558259L
sI431
L1562107L
sI432
L1565858L
sI433
L1569690L
sI434
L1573503L
sI435
L1577234L
sI436
L1581005L
sI437
L1584914L
sI438
L1588862L
sI439
L1592544L
sI440
L1596285L
sI441
L1599946L
sI442
L1603651L
sI443
L1607403L
sI444
L1611121L
sI445
L1614791L
sI446
L1618382L
sI447
L1622143L
sI448
L1625922L
sI449
L1629528L
sI450
L1633134L
sI451
L1636778L
sI452
L1640490L
sI453
L1644162L
sI454
L1647818L
sI455
L1651418L
sI456
L1655134L
sI457
L1658736L
sI458
L1662431L
sI459
L1665927L
sI460
L1669530L
sI461
L1673189L
sI462
L1676690L
sI463
L1680225L
sI464
L1683798L
sI465
L1687198L
sI466
L1690916L
sI467
L1694548L
sI468
L1698323L
sI469
L1702233L
sI470
L1706077L
sI471
L1709778L
sI472
L1713596L
sI473
L1717146L
sI474
L1720695L
sI475
L1724513L
sI476
L1728214L
sI477
L1732305L
sI478
L1736364L
sI479
L1740219L
sI480
L1744108L
sI481
L1747912L
sI482
L1751293L
sI483
L1754836L
sI484
L1758573L
sI485
L1762186L
sI486
L1765799L
sI487
L1769601L
sI488
L1773274L
sI489
L1777006L
sI490
L1780809L
sI491
L1784529L
sI492
L1788249L
sI493
L1792082L
sI494
L1795970L
sI495
L1799896L
sI496
L1803731L
sI497
L1807386L
sI498
L1811095L
sI499
L1814766L
sI500
L1818432L
sI501
L1822185L
sI502
L1825897L
sI503
L1829714L
sI504
L1833476L
sI505
L1837309L
sI506
L1840994L
sI507
L1844679L
sI508
L1848438L
sI509
L1852179L
sI510
L1855749L
sI511
L1859610L
sI512
L1863407L
sI513
L1867048L
sI514
L1870836L
sI515
L1874541L
sI516
L1878613L
sI517
L1882666L
sI518
L1886739L
sI519
L1890816L
sI520
L1895050L
sI521
L1898948L
sI522
L1902612L
sI523
L1906235L
sI524
L1910288L
sI525
L1914015L
sI526
L1917917L
sI527
L1921586L
sI528
L1925208L
sI529
L1928894L
sI530
L1932635L
sI531
L1936387L
sI532
L1940176L
sI533
L1943928L
sI534
L1947717L
sI535
L1951306L
sI536
L1954927L
sI537
L1958557L
sI538
L1962233L
sI539
L1966059L
sI540
L1969687L
sI541
L1973468L
sI542
L1977331L
sI543
L1981272L
sI544
L1985179L
sI545
L1989149L
sI546
L1992937L
sI547
L1996513L
sI548
L2000362L
sI549
L2004181L
sI550
L2007899L
sI551
L2011735L
sI552
L2015548L
sI553
L2019283L
sI554
L2023048L
sI555
L2026816L
sI556
L2030414L
sI557
L2034101L
sI558
L2037607L
sI559
L2041507L
sI560
L2045069L
sI561
L2048633L
sI562
L2052216L
sI563
L2055893L
sI564
L2059614L
sI565
L2063378L
sI566
L2067105L
sI567
L2070873L
sI568
L2074664L
sI569
L2078493L
sI570
L2082072L
sI571
L2085878L
sI572
L2089826L
sI573
L2093721L
sI574
L2097605L
sI575
L2101533L
sI576
L2105466L
sI577
L2109425L
sI578
L2113317L
sI579
L2117277L
sI580
L2121131L
sI581
L2124962L
sI582
L2128826L
sI583
L2132533L
sI584
L2136324L
sI585
L2140057L
sI586
L2143911L
sI587
L2147750L
sI588
L2151582L
sI589
L2155522L
sI590
L2159190L
sI591
L2163072L
sI592
L2167000L
sI593
L2170699L
sI594
L2174204L
sI595
L2177719L
sI596
L2181206L
sI597
L2184883L
sI598
L2188380L
sI599
L2191677L
sI600
L2195053L
sI601
L2198540L
sI602
L2202031L
sI603
L2205438L
sI604
L2208944L
sI605
L2212464L
sI606
L2215975L
sI607
L2219500L
sI608
L2222786L
sI609
L2226120L
sI610
L2229668L
sI611
L2233166L
sI612
L2236690L
sI613
L2240174L
sI614
L2243655L
sI615
L2246921L
sI616
L2250197L
sI617
L2253699L
sI618
L2256990L
sI619
L2260517L
sI620
L2264005L
sI621
L2267296L
sI622
L2270823L
sI623
L2274340L
sI624
L2277879L
sI625
L2281423L
sI626
L2285079L
sI627
L2288745L
sI628
L2292017L
sI629
L2295423L
sI630
L2298843L
sI631
L2302155L
sI632
L2305455L
sI633
L2308918L
sI634
L2312372L
sI635
L2316024L
sI636
L2319749L
sI637
L2323405L
sI638
L2327134L
sI639
L2330685L
sI640
L2334127L
sI641
L2337562L
sI642
L2340972L
sI643
L2344660L
sI644
L2348358L
sI645
L2351830L
sI646
L2355384L
sI647
L2359099L
sI648
L2362845L
sI649
L2366503L
sI650
L2370213L
sI651
L2373951L
sI652
L2377605L
sI653
L2381117L
sI654
L2384694L
sI655
L2388225L
sI656
L2391742L
sI657
L2395571L
sI658
L2399072L
sI659
L2402844L
sI660
L2406350L
sI661
L2409841L
sI662
L2413404L
sI663
L2417014L
sI664
L2420617L
sI665
L2424123L
sI666
L2427830L
sI667
L2431352L
sI668
L2434893L
sI669
L2438434L
sI670
L2441976L
sI671
L2445458L
sI672
L2448974L
sI673
L2452727L
sI674
L2456697L
sI675
L2460692L
sI676
L2464265L
sI677
L2467804L
sI678
L2471487L
sI679
L2475190L
sI680
L2478881L
sI681
L2482592L
sI682
L2486172L
sI683
L2489772L
sI684
L2493317L
sI685
L2496820L
sI686
L2500283L
sI687
L2503751L
sI688
L2507209L
sI689
L2510661L
sI690
L2514159L
sI691
L2517646L
sI692
L2521119L
sI693
L2524626L
sI694
L2528098L
sI695
L2531571L
sI696
L2535064L
sI697
L2538507L
sI698
L2541960L
sI699
L2545433L
sI700
L2548886L
sI701
L2552344L
sI702
L2555847L
sI703
L2559345L
sI704
L2562838L
sI705
L2566336L
sI706
L2569819L
sI707
L2573307L
sI708
L2576780L
sI709
L2580340L
sI710
L2583808L
sI711
L2587291L
sI712
L2590739L
sI713
L2594266L
sI714
L2597831L
sI715
L2601388L
sI716
L2604938L
sI717
L2608386L
sI718
L2611874L
sI719
L2615372L
sI720
L2618890L
sI721
L2622378L
sI722
L2625846L
sI723
L2629319L
sI724
L2632876L
sI725
L2636473L
sI726
L2640055L
sI727
L2643642L
sI728
L2647119L
sI729
L2650620L
sI730
L2654097L
sI731
L2657579L
sI732
L2661151L
sI733
L2664608L
sI734
L2668085L
sI735
L2671537L
sI736
L2675039L
sI737
L2678526L
sI738
L2681977L
sI739
L2685414L
sI740
L2688890L
sI741
L2692361L
sI742
L2695832L
sI743
L2699303L
sI744
L2702774L
sI745
L2706230L
sI746
L2709686L
sI747
L2713182L
sI748
L2716664L
sI749
L2720126L
sI750
L2723588L
sI751
L2727090L
sI752
L2730532L
sI753
L2733979L
sI754
L2737481L
sI755
L2740933L
sI756
L2744385L
sI757
L2747837L
sI758
L2751289L
sI759
L2754776L
sI760
L2758228L
sI761
L2761720L
sI762
L2765192L
sI763
L2768709L
sI764
L2772201L
sI765
L2775713L
sI766
L2779195L
sI767
L2782697L
sI768
L2786183L
sI769
L2789660L
sI770
L2793137L
sI771
L2796574L
sI772
L2800030L
sI773
L2803471L
sI774
L2806937L
sI775
L2810403L
sI776
L2813868L
sI777
L2817441L
sI778
L2821018L
sI779
L2824499L
sI780
L2827994L
sI781
L2831430L
sI782
L2834886L
sI783
L2838420L
sI784
L2842056L
sI785
L2845928L
sI786
L2849495L
sI787
L2852960L
sI788
L2856527L
sI789
L2860094L
sI790
L2863642L
sI791
L2867359L
sI792
L2870820L
sI793
L2874281L
sI794
L2877829L
sI795
L2881309L
sI796
L2885044L
sI797
L2888793L
sI798
L2892258L
sI799
L2895714L
sI800
L2899410L
sI801
L2902875L
sI802
L2906335L
sI803
L2909790L
sI804
L2913337L
sI805
L2917059L
sI806
L2920904L
sI807
L2924509L
sI808
L2928281L
sI809
L2931917L
sI810
L2935523L
sI811
L2939300L
sI812
L2942867L
sI813
L2946625L
sI814
L2950066L
sI815
L2953780L
sI816
L2957270L
sI817
L2960862L
sI818
L2964445L
sI819
L2968017L
sI820
L2971473L
sI821
L2975301L
sI822
L2979020L
sI823
L2982572L
sI824
L2986133L
sI825
L2989694L
sI826
L2993169L
sI827
L2996750L
sI828
L3000350L
sI829
L3003800L
sI830
L3007261L
sI831
L3010736L
sI832
L3014470L
sI833
L3018048L
sI834
L3021796L
sI835
L3025247L
sI836
L3028843L
sI837
L3032331L
sI838
L3035953L
sI839
L3039472L
sI840
L3043104L
sI841
L3046740L
sI842
L3050357L
sI843
L3053973L
sI844
L3057487L
sI845
L3061005L
sI846
L3064504L
sI847
L3068052L
sI848
L3071532L
sI849
L3075171L
sI850
L3078915L
sI851
L3082429L
sI852
L3085982L
sI853
L3089487L
sI854
L3093016L
sI855
L3096760L
sI856
L3100504L
sI857
L3104006L
sI858
L3107527L
sI859
L3111022L
sI860
L3114562L
sI861
L3118174L
sI862
L3121659L
sI863
L3125169L
sI864
L3128723L
sI865
L3132338L
sI866
L3136013L
sI867
L3139689L
sI868
L3143160L
sI869
L3146617L
sI870
L3150283L
sI871
L3153869L
sI872
L3157397L
sI873
L3161096L
sI874
L3164809L
sI875
L3168401L
sI876
L3171871L
sI877
L3175433L
sI878
L3178990L
sI879
L3182985L
sI880
L3186981L
sI881
L3190885L
sI882
L3194653L
sI883
L3198541L
sI884
L3202108L
sI885
L3205559L
sI886
L3209624L
sI887
L3213683L
sI888
L3217342L
sI889
L3221232L
sI890
L3224895L
sI891
L3228529L
sI892
L3232155L
sI893
L3235805L
sI894
L3239374L
sI895
L3242880L
sI896
L3246512L
sI897
L3250120L
sI898
L3253678L
sI899
L3257160L
sI900
L3260684L
sI901
L3264156L
sI902
L3268232L
sI903
L3272337L
sI904
L3276028L
sI905
L3279729L
sI906
L3283459L
sI907
L3287168L
sI908
L3290655L
sI909
L3294294L
sI910
L3298214L
sI911
L3301841L
sI912
L3305297L
sI913
L3308749L
sI914
L3312200L
sI915
L3315752L
sI916
L3319276L
sI917
L3322826L
sI918
L3326564L
sI919
L3330253L
sI920
L3333758L
sI921
L3337286L
sI922
L3340791L
sI923
L3344382L
sI924
L3348111L
sI925
L3351850L
sI926
L3355736L
sI927
L3359541L
sI928
L3363436L
sI929
L3367432L
sI930
L3371118L
sI931
L3374905L
sI932
L3378723L
sI933
L3382522L
sI934
L3386426L
sI935
L3390329L
sI936
L3394224L
sI937
L3398123L
sI938
L3401686L
sI939
L3405642L
sI940
L3409268L
sI941
L3413131L
sI942
L3416734L
sI943
L3420302L
sI944
L3423888L
sI945
L3427481L
sI946
L3431073L
sI947
L3434670L
sI948
L3438222L
sI949
L3441813L
sI950
L3445390L
sI951
L3448901L
sI952
L3452528L
sI953
L3456038L
sI954
L3459475L
sI955
L3463130L
sI956
L3466715L
sI957
L3470602L
sI958
L3474487L
sI959
L3478355L
sI960
L3482096L
sI961
L3485611L
sI962
L3489179L
sI963
L3492717L
sI964
L3496320L
sI965
L3499830L
sI966
L3503426L
sI967
L3507219L
sI968
L3510801L
sI969
L3514272L
sI970
L3517738L
sI971
L3521194L
sI972
L3524737L
sI973
L3528334L
sI974
L3531794L
sI975
L3535260L
sI976
L3538764L
sI977
L3542422L
sI978
L3545898L
sI979
L3549368L
sI980
L3553004L
sI981
L3556483L
sI982
L3559962L
sI983
L3563535L
sI984
L3567031L
sI985
L3570579L
sI986
L3574058L
sI987
L3577537L
sI988
L3581033L
sI989
L3584485L
sI990
L3587950L
sI991
L3591677L
sI992
L3595124L
sI993
L3598720L
sI994
L3602258L
sI995
L3605821L
sI996
L3609314L
sI997
L3612884L
sI998
L3616348L
sI999
L3619957L
sI1000
L3623429L
sI1001
L3626883L
sI1002
L3630434L
sI1003
L3633994L
sI1004
L3637541L
sI1005
L3640977L
sI1006
L3644524L
sI1007
L3648019L
sI1008
L3651524L
sI1009
L3655213L
sI1010
L3658684L
sI1011
L3662334L
sI1012
L3666016L
sI1013
L3669817L
sI1014
L3673811L
sI1015
L3677328L
sI1016
L3680891L
sI1017
L3684498L
sI1018
L3688171L
sI1019
L3692078L
sI1020
L3695758L
sI1021
L3699448L
sI1022
L3703060L
sI1023
L3706516L
sI1024
L3710199L
sI1025
L3713999L
sI1026
L3717446L
sI1027
L3721191L
sI1028
L3724936L
sI1029
L3728969L
sI1030
L3732510L
sI1031
L3736319L
sI1032
L3739804L
sI1033
L3743462L
sI1034
L3746946L
sI1035
L3750436L
sI1036
L3754138L
sI1037
L3757782L
sI1038
L3761470L
sI1039
L3764936L
sI1040
L3768816L
sI1041
L3772373L
sI1042
L3776125L
sI1043
L3779867L
sI1044
L3783553L
sI1045
L3787178L
sI1046
L3790865L
sI1047
L3794654L
sI1048
L3798423L
sI1049
L3801956L
sI1050
L3805464L
sI1051
L3809051L
sI1052
L3812633L
sI1053
L3816345L
sI1054
L3819896L
sI1055
L3823527L
sI1056
L3827224L
sI1057
L3830781L
sI1058
L3834525L
sI1059
L3838198L
sI1060
L3841664L
sI1061
L3845322L
sI1062
L3848802L
sI1063
L3852272L
sI1064
L3855737L
sI1065
L3859220L
sI1066
L3862675L
sI1067
L3866164L
sI1068
L3869638L
sI1069
L3873107L
sI1070
L3876601L
sI1071
L3880105L
sI1072
L3884099L
sI1073
L3887895L
sI1074
L3891624L
sI1075
L3895157L
sI1076
L3898723L
sI1077
L3902480L
sI1078
L3906027L
sI1079
L3909488L
sI1080
L3913054L
sI1081
L3916504L
sI1082
L3920181L
sI1083
L3923902L
sI1084
L3927653L
sI1085
L3931205L
sI1086
L3934789L
sI1087
L3938473L
sI1088
L3942121L
sI1089
L3945596L
sI1090
L3949348L
sI1091
L3953190L
sI1092
L3956976L
sI1093
L3960776L
sI1094
L3964354L
sI1095
L3968034L
sI1096
L3971661L
sI1097
L3975232L
sI1098
L3978813L
sI1099
L3982298L
sI1100
L3985773L
sI1101
L3989468L
sI1102
L3993273L
sI1103
L3997100L
sI1104
L4000561L
sI1105
L4004046L
sI1106
L4007541L
sI1107
L4011118L
sI1108
L4014953L
sI1109
L4018701L
sI1110
L4022473L
sI1111
L4026066L
sI1112
L4029702L
sI1113
L4033478L
sI1114
L4037230L
sI1115
L4040991L
sI1116
L4044669L
sI1117
L4048235L
sI1118
L4051808L
sI1119
L4055361L
sI1120
L4059463L
sI1121
L4063538L
sI1122
L4067167L
sI1123
L4070718L
sI1124
L4074564L
sI1125
L4078266L
sI1126
L4081776L
sI1127
L4085232L
sI1128
L4088809L
sI1129
L4092421L
sI1130
L4095959L
sI1131
L4099999L
sI1132
L4103469L
sI1133
L4107153L
sI1134
L4110743L
sI1135
L4114202L
sI1136
L4117803L
sI1137
L4121483L
sI1138
L4125064L
sI1139
L4128650L
sI1140
L4132197L
sI1141
L4135890L
sI1142
L4139883L
sI1143
L4143637L
sI1144
L4147512L
sI1145
L4151302L
sI1146
L4154980L
sI1147
L4158679L
sI1148
L4162552L
sI1149
L4166262L
sI1150
L4169718L
sI1151
L4173188L
sI1152
L4177031L
sI1153
L4180714L
sI1154
L4184340L
sI1155
L4188119L
sI1156
L4191797L
sI1157
L4195256L
sI1158
L4198697L
sI1159
L4202366L
sI1160
L4206150L
sI1161
L4209934L
sI1162
L4213598L
sI1163
L4217266L
sI1164
L4221118L
sI1165
L4224699L
sI1166
L4228338L
sI1167
L4232008L
sI1168
L4235555L
sI1169
L4239088L
sI1170
L4242635L
sI1171
L4246306L
sI1172
L4249938L
sI1173
L4253574L
sI1174
L4257205L
sI1175
L4260894L
sI1176
L4264447L
sI1177
L4268264L
sI1178
L4272228L
sI1179
L4275905L
sI1180
L4279799L
sI1181
L4283649L
sI1182
L4287248L
sI1183
L4290747L
sI1184
L4294659L
sI1185
L4298272L
sI1186
L4301914L
sI1187
L4305845L
sI1188
L4309749L
sI1189
L4313495L
sI1190
L4317241L
sI1191
L4320952L
sI1192
L4324513L
sI1193
L4328282L
sI1194
L4331829L
sI1195
L4335391L
sI1196
L4339014L
sI1197
L4342576L
sI1198
L4346055L
sI1199
L4349534L
sI1200
L4353193L
sI1201
L4356871L
sI1202
L4360326L
sI1203
L4363767L
sI1204
L4367759L
sI1205
L4371510L
sI1206
L4375261L
sI1207
L4378838L
sI1208
L4382623L
sI1209
L4386308L
sI1210
L4390184L
sI1211
L4393819L
sI1212
L4397689L
sI1213
L4401290L
sI1214
L4404702L
sI1215
L4408115L
sI1216
L4411579L
sI1217
L4415097L
sI1218
L4418575L
sI1219
L4421972L
sI1220
L4425353L
sI1221
L4428729L
sI1222
L4432130L
sI1223
L4435535L
sI1224
L4438913L
sI1225
L4442314L
sI1226
L4445827L
sI1227
L4449388L
sI1228
L4452914L
sI1229
L4456361L
sI1230
L4459914L
sI1231
L4463369L
sI1232
L4466786L
sI1233
L4470286L
sI1234
L4473799L
sI1235
L4477312L
sI1236
L4480803L
sI1237
L4484280L
sI1238
L4487728L
sI1239
L4491239L
sI1240
L4494730L
sI1241
L4498295L
sI1242
L4501876L
sI1243
L4505406L
sI1244
L4508981L
sI1245
L4512559L
sI1246
L4516108L
sI1247
L4519683L
sI1248
L4523277L
sI1249
L4527003L
sI1250
L4530477L
sI1251
L4533965L
sI1252
L4537512L
sI1253
L4541031L
sI1254
L4544565L
sI1255
L4548102L
sI1256
L4551549L
sI1257
L4554995L
sI1258
L4558593L
sI1259
L4562279L
sI1260
L4566047L
sI1261
L4569657L
sI1262
L4573267L
sI1263
L4576748L
sI1264
L4580314L
sI1265
L4584212L
sI1266
L4588368L
sI1267
L4592440L
sI1268
L4596069L
sI1269
L4599909L
sI1270
L4603668L
sI1271
L4607375L
sI1272
L4611076L
sI1273
L4614865L
sI1274
L4618618L
sI1275
L4622317L
sI1276
L4626023L
sI1277
L4629741L
sI1278
L4633681L
sI1279
L4637828L
sI1280
L4641564L
sI1281
L4645114L
sI1282
L4648871L
sI1283
L4652633L
sI1284
L4656420L
sI1285
L4660176L
sI1286
L4663940L
sI1287
L4667636L
sI1288
L4671332L
sI1289
L4674937L
sI1290
L4678574L
sI1291
L4682210L
sI1292
L4685847L
sI1293
L4689468L
sI1294
L4693309L
sI1295
L4697149L
sI1296
L4700990L
sI1297
L4704603L
sI1298
L4708432L
sI1299
L4712260L
sI1300
L4716089L
sI1301
L4719808L
sI1302
L4723527L
sI1303
L4726875L
sI1304
L4730506L
sI1305
L4734095L
sI1306
L4737710L
sI1307
L4740987L
sI1308
L4744525L
sI1309
L4748077L
sI1310
L4751480L
sI1311
L4755179L
sI1312
L4758940L
sI1313
L4762492L
sI1314
L4766324L
sI1315
L4770223L
sI1316
L4773823L
sI1317
L4777690L
sI1318
L4781403L
sI1319
L4785138L
sI1320
L4788873L
sI1321
L4792824L
sI1322
L4796540L
sI1323
L4800050L
sI1324
L4803837L
sI1325
L4807500L
sI1326
L4811279L
sI1327
L4814832L
sI1328
L4818568L
sI1329
L4822478L
sI1330
L4826471L
sI1331
L4830410L
sI1332
L4834291L
sI1333
L4838234L
sI1334
L4841852L
sI1335
L4845642L
sI1336
L4849371L
sI1337
L4853057L
sI1338
L4856717L
sI1339
L4860377L
sI1340
L4864026L
sI1341
L4867670L
sI1342
L4871351L
sI1343
L4875023L
sI1344
L4878751L
sI1345
L4882430L
sI1346
L4886228L
sI1347
L4890057L
sI1348
L4893626L
sI1349
L4897150L
sI1350
L4900708L
sI1351
L4904270L
sI1352
L4907919L
sI1353
L4911516L
sI1354
L4915146L
sI1355
L4918731L
sI1356
L4922539L
sI1357
L4926317L
sI1358
L4930129L
sI1359
L4933921L
sI1360
L4937776L
sI1361
L4941624L
sI1362
L4945376L
sI1363
L4949059L
sI1364
L4952763L
sI1365
L4956381L
sI1366
L4959984L
sI1367
L4963792L
sI1368
L4967570L
sI1369
L4971223L
sI1370
L4974859L
sI1371
L4978548L
sI1372
L4982187L
sI1373
L4985846L
sI1374
L4989741L
sI1375
L4993716L
sI1376
L4997299L
sI1377
L5000878L
sI1378
L5004568L
sI1379
L5008192L
sI1380
L5011954L
sI1381
L5015810L
sI1382
L5019579L
sI1383
L5023234L
sI1384
L5026838L
sI1385
L5030541L
sI1386
L5034199L
sI1387
L5037733L
sI1388
L5041272L
sI1389
L5044849L
sI1390
L5048334L
sI1391
L5051981L
sI1392
L5055502L
sI1393
L5059008L
sI1394
L5062694L
sI1395
L5066406L
sI1396
L5070572L
sI1397
L5074207L
sI1398
L5077977L
sI1399
L5081780L
sI1400
L5085508L
sI1401
L5089323L
sI1402
L5092796L
sI1403
L5096269L
sI1404
L5099747L
sI1405
L5103417L
sI1406
L5107560L
sI1407
L5111706L
sI1408
L5115532L
sI1409
L5119363L
sI1410
L5123041L
sI1411
L5126759L
sI1412
L5130451L
sI1413
L5134253L
sI1414
L5138055L
sI1415
L5141857L
sI1416
L5145659L
sI1417
L5149461L
sI1418
L5153263L
sI1419
L5157065L
sI1420
L5160867L
sI1421
L5164669L
sI1422
L5168475L
sI1423
L5172281L
sI1424
L5176087L
sI1425
L5179893L
sI1426
L5183699L
sI1427
L5187505L
sI1428
L5191311L
sI1429
L5195117L
sI1430
L5198923L
sI1431
L5202729L
sI1432
L5206535L
sI1433
L5210298L
sI1434
L5213863L
sI1435
L5217508L
sI1436
L5221156L
sI1437
L5224934L
sI1438
L5228700L
sI1439
L5232409L
sI1440
L5236037L
sI1441
L5239872L
sI1442
L5243712L
sI1443
L5247567L
sI1444
L5251357L
sI1445
L5255023L
sI1446
L5258671L
sI1447
L5262295L
sI1448
L5265914L
sI1449
L5269456L
sI1450
L5273204L
sI1451
L5277013L
sI1452
L5280546L
sI1453
L5284096L
sI1454
L5287708L
sI1455
L5291544L
sI1456
L5295086L
sI1457
L5298843L
sI1458
L5302671L
sI1459
L5306510L
sI1460
L5310094L
sI1461
L5313942L
sI1462
L5317546L
sI1463
L5321389L
sI1464
L5325243L
sI1465
L5328842L
sI1466
L5332655L
sI1467
L5336475L
sI1468
L5340288L
sI1469
L5344103L
sI1470
L5347906L
sI1471
L5351683L
sI1472
L5355506L
sI1473
L5359303L
sI1474
L5363121L
sI1475
L5366913L
sI1476
L5370712L
sI1477
L5374509L
sI1478
L5378084L
sI1479
L5381683L
sI1480
L5385577L
sI1481
L5389536L
sI1482
L5393472L
sI1483
L5397452L
sI1484
L5401384L
sI1485
L5405526L
sI1486
L5409493L
sI1487
L5413554L
sI1488
L5417621L
sI1489
L5421416L
sI1490
L5425422L
sI1491
L5429439L
sI1492
L5433379L
sI1493
L5437367L
sI1494
L5441459L
sI1495
L5445432L
sI1496
L5449363L
sI1497
L5453442L
sI1498
L5458479L
sI1499
L5462520L
sI1500
L5466574L
sI1501
L5470793L
sI1502
L5474895L
sI1503
L5479018L
sI1504
L5483000L
sI1505
L5487008L
sI1506
L5491095L
sI1507
L5495119L
sI1508
L5499018L
sI1509
L5503213L
sI1510
L5507078L
sI1511
L5511106L
sI1512
L5515076L
sI1513
L5519037L
sI1514
L5523141L
sI1515
L5527256L
sI1516
L5531150L
sI1517
L5535185L
sI1518
L5538917L
sI1519
L5545877L
sI1520
L5549819L
sI1521
L5553693L
sI1522
L5557645L
sI1523
L5561537L
sI1524
L5565733L
sI1525
L5569608L
sI1526
L5573512L
sI1527
L5578225L
sI1528
L5582057L
sI1529
L5586101L
sI1530
L5590563L
sI1531
L5594603L
sI1532
L5598748L
sI1533
L5602790L
sI1534
L5606868L
sI1535
L5611889L
sI1536
L5615798L
sI1537
L5619687L
sI1538
L5623649L
sI1539
L5627726L
sI1540
L5631660L
sI1541
L5635401L
sI1542
L5639153L
sI1543
L5642939L
sI1544
L5646846L
sI1545
L5650680L
sI1546
L5654528L
sI1547
L5658233L
sI1548
L5662236L
sI1549
L5666160L
sI1550
L5670141L
sI1551
L5674104L
sI1552
L5678004L
sI1553
L5682017L
sI1554
L5685968L
sI1555
L5690113L
sI1556
L5694133L
sI1557
L5698122L
sI1558
L5702120L
sI1559
L5706140L
sI1560
L5710168L
sI1561
L5714209L
sI1562
L5718289L
sI1563
L5722434L
sI1564
L5726501L
sI1565
L5730628L
sI1566
L5734620L
sI1567
L5738762L
sI1568
L5742759L
sI1569
L5746599L
sI1570
L5750751L
sI1571
L5754746L
sI1572
L5759637L
sI1573
L5763571L
sI1574
L5767518L
sI1575
L5771567L
sI1576
L5775621L
sI1577
L5779589L
sI1578
L5783637L
sI1579
L5787556L
sI1580
L5791466L
sI1581
L5795408L
sI1582
L5799413L
sI1583
L5803451L
sI1584
L5807451L
sI1585
L5811362L
sI1586
L5815489L
sI1587
L5819504L
sI1588
L5823485L
sI1589
L5827397L
sI1590
L5831361L
sI1591
L5835330L
sI1592
L5839313L
sI1593
L5843301L
sI1594
L5847274L
sI1595
L5851252L
sI1596
L5855210L
sI1597
L5859298L
sI1598
L5863254L
sI1599
L5867339L
sI1600
L5871426L
sI1601
L5875369L
sI1602
L5879356L
sI1603
L5883447L
sI1604
L5887518L
sI1605
L5891491L
sI1606
L5895581L
sI1607
L5899512L
sI1608
L5903495L
sI1609
L5907525L
sI1610
L5911561L
sI1611
L5915663L
sI1612
L5919753L
sI1613
L5923845L
sI1614
L5927848L
sI1615
L5931905L
sI1616
L5935877L
sI1617
L5939865L
sI1618
L5943866L
sI1619
L5947800L
sI1620
L5951765L
sI1621
L5955697L
sI1622
L5959644L
sI1623
L5963691L
sI1624
L5967739L
sI1625
L5971656L
sI1626
L5975598L
sI1627
L5979570L
sI1628
L5983548L
sI1629
L5987601L
sI1630
L5991585L
sI1631
L5995679L
sI1632
L5999686L
sI1633
L6003762L
sI1634
L6007829L
sI1635
L6012171L
sI1636
L6016153L
sI1637
L6020120L
sI1638
L6024121L
sI1639
L6028112L
sI1640
L6032158L
sI1641
L6036258L
sI1642
L6040200L
sI1643
L6044331L
sI1644
L6048394L
sI1645
L6052359L
sI1646
L6056312L
sI1647
L6060376L
sI1648
L6064287L
sI1649
L6068251L
sI1650
L6072205L
sI1651
L6076037L
sI1652
L6079965L
sI1653
L6083807L
sI1654
L6087880L
sI1655
L6091813L
sI1656
L6095785L
sI1657
L6099888L
sI1658
L6103961L
sI1659
L6110812L
sI1660
L6114478L
sI1661
L6118533L
sI1662
L6122393L
sI1663
L6126351L
sI1664
L6130129L
sI1665
L6134045L
sI1666
L6137893L
sI1667
L6141819L
sI1668
L6145869L
sI1669
L6149901L
sI1670
L6153960L
sI1671
L6157915L
sI1672
L6161800L
sI1673
L6165829L
sI1674
L6169796L
sI1675
L6173657L
sI1676
L6177576L
sI1677
L6181489L
sI1678
L6185351L
sI1679
L6189440L
sI1680
L6193490L
sI1681
L6197432L
sI1682
L6202638L
sI1683
L6206648L
sI1684
L6210433L
sI1685
L6214217L
sI1686
L6217974L
sI1687
L6221930L
sI1688
L6225875L
sI1689
L6229867L
sI1690
L6233611L
sI1691
L6237630L
sI1692
L6241606L
sI1693
L6245542L
sI1694
L6249475L
sI1695
L6253238L
sI1696
L6257007L
sI1697
L6260898L
sI1698
L6264756L
sI1699
L6268680L
sI1700
L6272569L
sI1701
L6276503L
sI1702
L6280661L
sI1703
L6284807L
sI1704
L6289051L
sI1705
L6293148L
sI1706
L6297206L
sI1707
L6301241L
sI1708
L6305313L
sI1709
L6309301L
sI1710
L6313351L
sI1711
L6317292L
sI1712
L6321279L
sI1713
L6325189L
sI1714
L6329132L
sI1715
L6333184L
sI1716
L6337339L
sI1717
L6341400L
sI1718
L6345371L
sI1719
L6349476L
sI1720
L6353516L
sI1721
L6357687L
sI1722
L6361710L
sI1723
L6365690L
sI1724
L6369664L
sI1725
L6373740L
sI1726
L6377791L
sI1727
L6381969L
sI1728
L6386089L
sI1729
L6391244L
sI1730
L6395282L
sI1731
L6399412L
sI1732
L6403435L
sI1733
L6407376L
sI1734
L6411425L
sI1735
L6415619L
sI1736
L6419546L
sI1737
L6423626L
sI1738
L6427586L
sI1739
L6431526L
sI1740
L6435629L
sI1741
L6439679L
sI1742
L6441033L
sI1743
L6446778L
sI1744
L6449360L
sI1745
L6451761L
sI1746
L6454205L
sI1747
L6456623L
sI1748
L6459189L
sI1749
L6462343L
sI1750
L6464973L
sI1751
L6467614L
sI1752
L6470453L
sI1753
L6473064L
sI1754
L6475701L
sI1755
L6478308L
sI1756
L6481050L
sI1757
L6483779L
sI1758
L6486223L
sI1759
L6488679L
sI1760
L6491405L
sI1761
L6493870L
sI1762
L6496619L
sI1763
L6499046L
sI1764
L6501781L
sI1765
L6504455L
sI1766
L6506868L
sI1767
L6509309L
sI1768
L6511927L
sI1769
L6514669L
sI1770
L6517283L
sI1771
L6520192L
sI1772
L6522800L
sI1773
L6525443L
sI1774
L6528341L
sI1775
L6530970L
sI1776
L6533378L
sI1777
L6535690L
sI1778
L6538790L
sI1779
L6541126L
sI1780
L6543860L
sI1781
L6546309L
sI1782
L6549092L
sI1783
L6551406L
sI1784
L6553706L
sI1785
L6556942L
sI1786
L6559357L
sI1787
L6561687L
sI1788
L6564029L
sI1789
L6566367L
sI1790
L6568717L
sI1791
L6571023L
sI1792
L6573329L
sI1793
L6575635L
sI1794
L6577941L
sI1795
L6580273L
sI1796
L6582595L
sI1797
L6585564L
sI1798
L6587903L
sI1799
L6592308L
sI1800
L6594630L
sI1801
L6597869L
sI1802
L6600813L
sI1803
L6603773L
sI1804
L6607778L
sI1805
L6611751L
sI1806
L6617444L
sI1807
L6620648L
sI1808
L6624649L
sI1809
L6627786L
sI1810
L6630621L
sI1811
L6635089L
sI1812
L6640547L
sI1813
L6644348L
sI1814
L6647176L
sI1815
L6649994L
sI1816
L6654080L
sI1817
L6656979L
sI1818
L6659992L
sI1819
L6662780L
sI1820
L6667109L
sI1821
L6669455L
sI1822
L6672139L
sI1823
L6674485L
sI1824
L6676825L
sI1825
L6679823L
sI1826
L6682819L
sI1827
L6685853L
sI1828
L6688213L
sI1829
L6690531L
sI1830
L6692867L
sI1831
L6695396L
sI1832
L6697899L
sI1833
L6700404L
sI1834
L6703091L
sI1835
L6705710L
sI1836
L6708291L
sI1837
L6710875L
sI1838
L6713297L
sI1839
L6716216L
sI1840
L6719232L
sI1841
L6722259L
sI1842
L6725241L
sI1843
L6728232L
sI1844
L6731100L
sI1845
L6734048L
sI1846
L6736989L
sI1847
L6740057L
sI1848
L6742979L
sI1849
L6745900L
sI1850
L6748799L
sI1851
L6751896L
sI1852
L6754875L
sI1853
L6757843L
sI1854
L6760848L
sI1855
L6763851L
sI1856
L6766862L
sI1857
L6769770L
sI1858
L6772669L
sI1859
L6775580L
sI1860
L6778491L
sI1861
L6781378L
sI1862
L6784256L
sI1863
L6787128L
sI1864
L6790036L
sI1865
L6793051L
sI1866
L6795966L
sI1867
L6798872L
sI1868
L6801802L
sI1869
L6804723L
sI1870
L6807610L
sI1871
L6810488L
sI1872
L6813404L
sI1873
L6816307L
sI1874
L6819213L
sI1875
L6822115L
sI1876
L6825055L
sI1877
L6827967L
sI1878
L6830899L
sI1879
L6833804L
sI1880
L6836748L
sI1881
L6839662L
sI1882
L6842560L
sI1883
L6845461L
sI1884
L6848461L
sI1885
L6851412L
sI1886
L6854385L
sI1887
L6857301L
sI1888
L6860230L
sI1889
L6863200L
sI1890
L6866133L
sI1891
L6869128L
sI1892
L6872057L
sI1893
L6875074L
sI1894
L6877979L
sI1895
L6880963L
sI1896
L6883994L
sI1897
L6886926L
sI1898
L6889948L
sI1899
L6892892L
sI1900
L6895791L
sI1901
L6898774L
sI1902
L6901676L
sI1903
L6904618L
sI1904
L6907674L
sI1905
L6910616L
sI1906
L6913591L
sI1907
L6916509L
sI1908
L6919562L
sI1909
L6922497L
sI1910
L6925438L
sI1911
L6928376L
sI1912
L6931327L
sI1913
L6934302L
sI1914
L6937216L
sI1915
L6940029L
sI1916
L6942855L
sI1917
L6945704L
sI1918
L6948556L
sI1919
L6951079L
sI1920
L6953378L
sI1921
L6956194L
sI1922
L6958982L
sI1923
L6961846L
sI1924
L6968001L
sI1925
L6971895L
sI1926
L6975172L
sI1927
L6980667L
sI1928
L6983876L
sI1929
L6987087L
sI1930
L6990552L
sI1931
L6993782L
sI1932
L6997831L
sI1933
L7002115L
sI1934
L7005113L
sI1935
L7007947L
sI1936
L7010795L
sI1937
L7013649L
sI1938
L7016540L
sI1939
L7019409L
sI1940
L7022261L
sI1941
L7025152L
sI1942
L7028645L
sI1943
L7032018L
sI1944
L7035014L
sI1945
L7039662L
sI1946
L7042513L
sI1947
L7045383L
sI1948
L7048257L
sI1949
L7051105L
sI1950
L7053974L
sI1951
L7056816L
sI1952
L7059670L
sI1953
L7062536L
sI1954
L7065653L
sI1955
L7068769L
sI1956
L7071657L
sI1957
L7074639L
sI1958
L7077430L
sI1959
L7080539L
sI1960
L7083505L
sI1961
L7086802L
sI1962
L7089737L
sI1963
L7092827L
sI1964
L7095732L
sI1965
L7098681L
sI1966
L7101603L
sI1967
L7104514L
sI1968
L7107397L
sI1969
L7110254L
sI1970
L7113281L
sI1971
L7116636L
sI1972
L7119302L
sI1973
L7121826L
sI1974
L7125127L
sI1975
L7131254L
sI1976
L7133790L
sI1977
L7136089L
sI1978
L7138905L
sI1979
L7141688L
sI1980
L7144551L
sI1981
L7150291L
sI1982
L7154121L
sI1983
L7157384L
sI1984
L7162500L
sI1985
L7165705L
sI1986
L7168909L
sI1987
L7172308L
sI1988
L7175533L
sI1989
L7179545L
sI1990
L7183657L
sI1991
L7186648L
sI1992
L7189476L
sI1993
L7192320L
sI1994
L7195178L
sI1995
L7198041L
sI1996
L7200892L
sI1997
L7203741L
sI1998
L7206613L
sI1999
L7210073L
sI2000
L7213432L
sI2001
L7216414L
sI2002
L7220844L
sI2003
L7223685L
sI2004
L7226543L
sI2005
L7229410L
sI2006
L7232251L
sI2007
L7235110L
sI2008
L7237959L
sI2009
L7240822L
sI2010
L7243687L
sI2011
L7246792L
sI2012
L7249891L
sI2013
L7252780L
sI2014
L7255767L
sI2015
L7258554L
sI2016
L7261670L
sI2017
L7264632L
sI2018
L7267873L
sI2019
L7270780L
sI2020
L7273851L
sI2021
L7276748L
sI2022
L7279688L
sI2023
L7282589L
sI2024
L7285491L
sI2025
L7288363L
sI2026
L7291215L
sI2027
L7294224L
sI2028
L7297568L
sI2029
L7300234L
sI2030
L7302758L
sI2031
L7306048L
sI2032
L7311767L
sI2033
L7314303L
sI2034
L7316602L
sI2035
L7319418L
sI2036
L7322201L
sI2037
L7325066L
sI2038
L7330596L
sI2039
L7334376L
sI2040
L7337643L
sI2041
L7342623L
sI2042
L7345827L
sI2043
L7349028L
sI2044
L7352414L
sI2045
L7355640L
sI2046
L7359608L
sI2047
L7363695L
sI2048
L7366688L
sI2049
L7369516L
sI2050
L7372363L
sI2051
L7375220L
sI2052
L7378084L
sI2053
L7380943L
sI2054
L7383792L
sI2055
L7386664L
sI2056
L7390124L
sI2057
L7393492L
sI2058
L7396481L
sI2059
L7400717L
sI2060
L7403559L
sI2061
L7406416L
sI2062
L7409288L
sI2063
L7412129L
sI2064
L7414996L
sI2065
L7417838L
sI2066
L7420690L
sI2067
L7423552L
sI2068
L7426663L
sI2069
L7429759L
sI2070
L7432650L
sI2071
L7435630L
sI2072
L7438410L
sI2073
L7441508L
sI2074
L7444477L
sI2075
L7447714L
sI2076
L7450620L
sI2077
L7453694L
sI2078
L7456594L
sI2079
L7459539L
sI2080
L7462437L
sI2081
L7465335L
sI2082
L7468200L
sI2083
L7471053L
sI2084
L7474077L
sI2085
L7477422L
sI2086
L7480088L
sI2087
L7482612L
sI2088
L7485895L
sI2089
L7491407L
sI2090
L7493943L
sI2091
L7496242L
sI2092
L7499058L
sI2093
L7501840L
sI2094
L7504702L
sI2095
L7510184L
sI2096
L7513962L
sI2097
L7517230L
sI2098
L7522154L
sI2099
L7525362L
sI2100
L7528567L
sI2101
L7531969L
sI2102
L7535193L
sI2103
L7539162L
sI2104
L7543250L
sI2105
L7546244L
sI2106
L7549072L
sI2107
L7551919L
sI2108
L7554772L
sI2109
L7557628L
sI2110
L7560483L
sI2111
L7563331L
sI2112
L7566202L
sI2113
L7569662L
sI2114
L7573026L
sI2115
L7576008L
sI2116
L7580292L
sI2117
L7583138L
sI2118
L7586004L
sI2119
L7588883L
sI2120
L7591727L
sI2121
L7594590L
sI2122
L7597434L
sI2123
L7600286L
sI2124
L7603147L
sI2125
L7606257L
sI2126
L7609363L
sI2127
L7612254L
sI2128
L7615237L
sI2129
L7618023L
sI2130
L7621126L
sI2131
L7624091L
sI2132
L7627339L
sI2133
L7630256L
sI2134
L7633323L
sI2135
L7636220L
sI2136
L7639168L
sI2137
L7642066L
sI2138
L7644965L
sI2139
L7647829L
sI2140
L7650678L
sI2141
L7653693L
sI2142
L7657039L
sI2143
L7659705L
sI2144
L7662229L
sI2145
L7665526L
sI2146
L7670990L
sI2147
L7673526L
sI2148
L7675825L
sI2149
L7678641L
sI2150
L7681427L
sI2151
L7684299L
sI2152
L7690936L
sI2153
L7694962L
sI2154
L7698247L
sI2155
L7704206L
sI2156
L7707423L
sI2157
L7710640L
sI2158
L7714122L
sI2159
L7717356L
sI2160
L7721506L
sI2161
L7726023L
sI2162
L7729027L
sI2163
L7731871L
sI2164
L7734723L
sI2165
L7737581L
sI2166
L7740454L
sI2167
L7743322L
sI2168
L7746174L
sI2169
L7749056L
sI2170
L7752557L
sI2171
L7755942L
sI2172
L7758952L
sI2173
L7763879L
sI2174
L7766740L
sI2175
L7769628L
sI2176
L7772553L
sI2177
L7775428L
sI2178
L7778309L
sI2179
L7781155L
sI2180
L7784021L
sI2181
L7786889L
sI2182
L7790022L
sI2183
L7793123L
sI2184
L7796036L
sI2185
L7799024L
sI2186
L7801830L
sI2187
L7804955L
sI2188
L7807925L
sI2189
L7811208L
sI2190
L7814138L
sI2191
L7817270L
sI2192
L7820189L
sI2193
L7823195L
sI2194
L7826116L
sI2195
L7829041L
sI2196
L7831919L
sI2197
L7834788L
sI2198
L7837835L
sI2199
L7841218L
sI2200
L7843884L
sI2201
L7846408L
sI2202
L7849727L
sI2203
L7856319L
sI2204
L7858855L
sI2205
L7861154L
sI2206
L7863970L
sI2207
L7866751L
sI2208
L7869615L
sI2209
L7875456L
sI2210
L7879291L
sI2211
L7882561L
sI2212
L7887778L
sI2213
L7890988L
sI2214
L7894191L
sI2215
L7897604L
sI2216
L7900830L
sI2217
L7904830L
sI2218
L7908971L
sI2219
L7911962L
sI2220
L7914792L
sI2221
L7917640L
sI2222
L7920494L
sI2223
L7923359L
sI2224
L7926224L
sI2225
L7929071L
sI2226
L7931941L
sI2227
L7935405L
sI2228
L7938772L
sI2229
L7941759L
sI2230
L7946203L
sI2231
L7949046L
sI2232
L7951910L
sI2233
L7954779L
sI2234
L7957625L
sI2235
L7960491L
sI2236
L7963337L
sI2237
L7966194L
sI2238
L7969059L
sI2239
L7972173L
sI2240
L7975273L
sI2241
L7978168L
sI2242
L7981150L
sI2243
L7983935L
sI2244
L7987048L
sI2245
L7990014L
sI2246
L7993268L
sI2247
L7996194L
sI2248
L7999278L
sI2249
L8002178L
sI2250
L8005122L
sI2251
L8008026L
sI2252
L8010934L
sI2253
L8013806L
sI2254
L8016659L
sI2255
L8019676L
sI2256
L8023030L
sI2257
L8025696L
sI2258
L8028220L
sI2259
L8031507L
sI2260
L8037329L
sI2261
L8039865L
sI2262
L8042164L
sI2263
L8044980L
sI2264
L8047762L
sI2265
L8050625L
sI2266
L8056148L
sI2267
L8059947L
sI2268
L8063211L
sI2269
L8068161L
sI2270
L8071374L
sI2271
L8074585L
sI2272
L8077966L
sI2273
L8081191L
sI2274
L8085190L
sI2275
L8089238L
sI2276
L8092235L
sI2277
L8095065L
sI2278
L8097908L
sI2279
L8100757L
sI2280
L8103617L
sI2281
L8106475L
sI2282
L8109319L
sI2283
L8112192L
sI2284
L8115651L
sI2285
L8119007L
sI2286
L8121984L
sI2287
L8126295L
sI2288
L8129138L
sI2289
L8131987L
sI2290
L8134869L
sI2291
L8137714L
sI2292
L8140577L
sI2293
L8143419L
sI2294
L8146270L
sI2295
L8149129L
sI2296
L8152234L
sI2297
L8155331L
sI2298
L8158219L
sI2299
L8161203L
sI2300
L8163989L
sI2301
L8167089L
sI2302
L8170050L
sI2303
L8173281L
sI2304
L8176181L
sI2305
L8179247L
sI2306
L8182146L
sI2307
L8185097L
sI2308
L8187996L
sI2309
L8190898L
sI2310
L8193768L
sI2311
L8196615L
sI2312
L8199619L
sI2313
L8202954L
sI2314
L8205620L
sI2315
L8208144L
sI2316
L8211424L
sI2317
L8216924L
sI2318
L8219460L
sI2319
L8221759L
sI2320
L8224575L
sI2321
L8227357L
sI2322
L8230220L
sI2323
L8236077L
sI2324
L8239868L
sI2325
L8243134L
sI2326
L8248377L
sI2327
L8251588L
sI2328
L8254793L
sI2329
L8258183L
sI2330
L8261408L
sI2331
L8265408L
sI2332
L8269551L
sI2333
L8272541L
sI2334
L8275370L
sI2335
L8278215L
sI2336
L8281066L
sI2337
L8283926L
sI2338
L8286787L
sI2339
L8289634L
sI2340
L8292512L
sI2341
L8295970L
sI2342
L8299332L
sI2343
L8302312L
sI2344
L8306725L
sI2345
L8309563L
sI2346
L8312427L
sI2347
L8315294L
sI2348
L8318146L
sI2349
L8321007L
sI2350
L8323849L
sI2351
L8326700L
sI2352
L8329561L
sI2353
L8332670L
sI2354
L8335777L
sI2355
L8338668L
sI2356
L8341650L
sI2357
L8344449L
sI2358
L8347553L
sI2359
L8350516L
sI2360
L8353769L
sI2361
L8356688L
sI2362
L8359758L
sI2363
L8362656L
sI2364
L8365597L
sI2365
L8368505L
sI2366
L8371410L
sI2367
L8374278L
sI2368
L8377132L
sI2369
L8380151L
sI2370
L8383498L
sI2371
L8386164L
sI2372
L8388688L
sI2373
L8391965L
sI2374
L8397799L
sI2375
L8400335L
sI2376
L8402634L
sI2377
L8405450L
sI2378
L8408236L
sI2379
L8411102L
sI2380
L8416999L
sI2381
L8420837L
sI2382
L8424119L
sI2383
L8429421L
sI2384
L8432649L
sI2385
L8435864L
sI2386
L8439271L
sI2387
L8442499L
sI2388
L8446486L
sI2389
L8450656L
sI2390
L8453648L
sI2391
L8456476L
sI2392
L8459322L
sI2393
L8462174L
sI2394
L8465061L
sI2395
L8467928L
sI2396
L8470776L
sI2397
L8473664L
sI2398
L8477122L
sI2399
L8480492L
sI2400
L8483489L
sI2401
L8487954L
sI2402
L8490799L
sI2403
L8493663L
sI2404
L8496539L
sI2405
L8499381L
sI2406
L8502242L
sI2407
L8505084L
sI2408
L8507936L
sI2409
L8510801L
sI2410
L8513914L
sI2411
L8517013L
sI2412
L8519901L
sI2413
L8522883L
sI2414
L8525672L
sI2415
L8528777L
sI2416
L8531741L
sI2417
L8534990L
sI2418
L8537906L
sI2419
L8540988L
sI2420
L8543901L
sI2421
L8546860L
sI2422
L8549794L
sI2423
L8552711L
sI2424
L8555575L
sI2425
L8558434L
sI2426
L8561449L
sI2427
L8564796L
sI2428
L8567462L
sI2429
L8569986L
sI2430
L8573267L
sI2431
L8579133L
sI2432
L8581669L
sI2433
L8583968L
sI2434
L8586784L
sI2435
L8589567L
sI2436
L8592437L
sI2437
L8598079L
sI2438
L8601878L
sI2439
L8605145L
sI2440
L8610191L
sI2441
L8613402L
sI2442
L8616605L
sI2443
L8619998L
sI2444
L8623230L
sI2445
L8627239L
sI2446
L8631367L
sI2447
L8634357L
sI2448
L8637191L
sI2449
L8640037L
sI2450
L8642921L
sI2451
L8645811L
sI2452
L8648669L
sI2453
L8651516L
sI2454
L8654391L
sI2455
L8657838L
sI2456
L8661197L
sI2457
L8664181L
sI2458
L8668517L
sI2459
L8671356L
sI2460
L8674213L
sI2461
L8677077L
sI2462
L8679919L
sI2463
L8682780L
sI2464
L8685651L
sI2465
L8688538L
sI2466
L8691432L
sI2467
L8694569L
sI2468
L8697673L
sI2469
L8700567L
sI2470
L8703550L
sI2471
L8706340L
sI2472
L8709453L
sI2473
L8712421L
sI2474
L8715669L
sI2475
L8718579L
sI2476
L8721652L
sI2477
L8724549L
sI2478
L8727484L
sI2479
L8730390L
sI2480
L8733298L
sI2481
L8736173L
sI2482
L8739029L
sI2483
L8742042L
sI2484
L8745386L
sI2485
L8748052L
sI2486
L8750576L
sI2487
L8753853L
sI2488
L8759470L
sI2489
L8762006L
sI2490
L8764305L
sI2491
L8767121L
sI2492
L8769903L
sI2493
L8772767L
sI2494
L8778392L
sI2495
L8782186L
sI2496
L8785453L
sI2497
L8790507L
sI2498
L8793712L
sI2499
L8796914L
sI2500
L8800310L
sI2501
L8803536L
sI2502
L8807522L
sI2503
L8811610L
sI2504
L8814600L
sI2505
L8817428L
sI2506
L8820274L
sI2507
L8823126L
sI2508
L8825985L
sI2509
L8828843L
sI2510
L8831692L
sI2511
L8834562L
sI2512
L8838018L
sI2513
L8841383L
sI2514
L8844362L
sI2515
L8848715L
sI2516
L8851561L
sI2517
L8854426L
sI2518
L8857290L
sI2519
L8860134L
sI2520
L8862993L
sI2521
L8865835L
sI2522
L8868693L
sI2523
L8871557L
sI2524
L8874666L
sI2525
L8877763L
sI2526
L8880655L
sI2527
L8883637L
sI2528
L8886417L
sI2529
L8889523L
sI2530
L8892487L
sI2531
L8895727L
sI2532
L8898632L
sI2533
L8901710L
sI2534
L8904606L
sI2535
L8907542L
sI2536
L8910442L
sI2537
L8913344L
sI2538
L8916211L
sI2539
L8919056L
sI2540
L8922071L
sI2541
L8925420L
sI2542
L8928086L
sI2543
L8930610L
sI2544
L8933885L
sI2545
L8939482L
sI2546
L8942018L
sI2547
L8944317L
sI2548
L8947133L
sI2549
L8949914L
sI2550
L8952777L
sI2551
L8958524L
sI2552
L8962329L
sI2553
L8965598L
sI2554
L8970723L
sI2555
L8973938L
sI2556
L8977151L
sI2557
L8980557L
sI2558
L8983787L
sI2559
L8987835L
sI2560
L8992009L
sI2561
L8995004L
sI2562
L8997838L
sI2563
L9000678L
sI2564
L9003524L
sI2565
L9006386L
sI2566
L9009253L
sI2567
L9012097L
sI2568
L9014976L
sI2569
L9018425L
sI2570
L9021791L
sI2571
L9024785L
sI2572
L9029205L
sI2573
L9032050L
sI2574
L9034920L
sI2575
L9037799L
sI2576
L9040643L
sI2577
L9043503L
sI2578
L9046351L
sI2579
L9049219L
sI2580
L9052096L
sI2581
L9055207L
sI2582
L9058309L
sI2583
L9061193L
sI2584
L9064189L
sI2585
L9066991L
sI2586
L9070105L
sI2587
L9073063L
sI2588
L9076312L
sI2589
L9079231L
sI2590
L9082313L
sI2591
L9085218L
sI2592
L9088173L
sI2593
L9091086L
sI2594
L9093998L
sI2595
L9096872L
sI2596
L9099726L
sI2597
L9102755L
sI2598
L9106106L
sI2599
L9108772L
sI2600
L9111296L
sI2601
L9114578L
sI2602
L9120301L
sI2603
L9122837L
sI2604
L9125136L
sI2605
L9127952L
sI2606
L9130734L
sI2607
L9133596L
sI2608
L9139147L
sI2609
L9142943L
sI2610
L9146209L
sI2611
L9151178L
sI2612
L9154384L
sI2613
L9157585L
sI2614
L9160971L
sI2615
L9164198L
sI2616
L9168174L
sI2617
L9172247L
sI2618
L9175242L
sI2619
L9178070L
sI2620
L9180910L
sI2621
L9183756L
sI2622
L9186613L
sI2623
L9189466L
sI2624
L9192310L
sI2625
L9195183L
sI2626
L9198635L
sI2627
L9201998L
sI2628
L9204984L
sI2629
L9209319L
sI2630
L9212161L
sI2631
L9215025L
sI2632
L9217891L
sI2633
L9220730L
sI2634
L9223588L
sI2635
L9226433L
sI2636
L9229286L
sI2637
L9232142L
sI2638
L9235250L
sI2639
L9238346L
sI2640
L9241230L
sI2641
L9244220L
sI2642
L9247011L
sI2643
L9250113L
sI2644
L9253071L
sI2645
L9256309L
sI2646
L9259213L
sI2647
L9262288L
sI2648
L9265190L
sI2649
L9268129L
sI2650
L9271033L
sI2651
L9273936L
sI2652
L9276804L
sI2653
L9279649L
sI2654
L9282652L
sI2655
L9285995L
sI2656
L9288661L
sI2657
L9291185L
sI2658
L9294472L
sI2659
L9299995L
sI2660
L9302531L
sI2661
L9304830L
sI2662
L9307646L
sI2663
L9310428L
sI2664
L9313292L
sI2665
L9318836L
sI2666
L9322606L
sI2667
L9325872L
sI2668
L9330841L
sI2669
L9334043L
sI2670
L9337243L
sI2671
L9340627L
sI2672
L9343853L
sI2673
L9347821L
sI2674
L9351867L
sI2675
L9354860L
sI2676
L9357688L
sI2677
L9360535L
sI2678
L9363388L
sI2679
L9366243L
sI2680
L9369101L
sI2681
L9371949L
sI2682
L9374820L
sI2683
L9378276L
sI2684
L9381638L
sI2685
L9384616L
sI2686
L9388911L
sI2687
L9391751L
sI2688
L9394607L
sI2689
L9397478L
sI2690
L9400326L
sI2691
L9403188L
sI2692
L9406030L
sI2693
L9408882L
sI2694
L9411742L
sI2695
L9414853L
sI2696
L9417949L
sI2697
L9420840L
sI2698
L9423824L
sI2699
L9426604L
sI2700
L9429704L
sI2701
L9432669L
sI2702
L9435908L
sI2703
L9438814L
sI2704
L9441884L
sI2705
L9444785L
sI2706
L9447731L
sI2707
L9450633L
sI2708
L9453537L
sI2709
L9456401L
sI2710
L9459249L
sI2711
L9462260L
sI2712
L9465600L
sI2713
L9468266L
sI2714
L9470790L
sI2715
L9474072L
sI2716
L9479590L
sI2717
L9482126L
sI2718
L9484425L
sI2719
L9487241L
sI2720
L9490022L
sI2721
L9492885L
sI2722
L9498408L
sI2723
L9502172L
sI2724
L9505439L
sI2725
L9510402L
sI2726
L9513604L
sI2727
L9516805L
sI2728
L9520190L
sI2729
L9523415L
sI2730
L9527392L
sI2731
L9531462L
sI2732
L9534455L
sI2733
L9537283L
sI2734
L9540129L
sI2735
L9542981L
sI2736
L9545835L
sI2737
L9548692L
sI2738
L9551540L
sI2739
L9554410L
sI2740
L9557857L
sI2741
L9561221L
sI2742
L9564202L
sI2743
L9568491L
sI2744
L9571336L
sI2745
L9574192L
sI2746
L9577056L
sI2747
L9579895L
sI2748
L9582754L
sI2749
L9585593L
sI2750
L9588444L
sI2751
L9591306L
sI2752
L9594417L
sI2753
L9597518L
sI2754
L9600408L
sI2755
L9603391L
sI2756
L9606175L
sI2757
L9609284L
sI2758
L9612248L
sI2759
L9615494L
sI2760
L9618409L
sI2761
L9621476L
sI2762
L9624369L
sI2763
L9627303L
sI2764
L9630200L
sI2765
L9633099L
sI2766
L9635963L
sI2767
L9638807L
sI2768
L9641827L
sI2769
L9645174L
sI2770
L9647840L
sI2771
L9650364L
sI2772
L9653649L
sI2773
L9659145L
sI2774
L9661681L
sI2775
L9663980L
sI2776
L9666796L
sI2777
L9669577L
sI2778
L9672440L
sI2779
L9678064L
sI2780
L9681878L
sI2781
L9685138L
sI2782
L9690159L
sI2783
L9693362L
sI2784
L9696564L
sI2785
L9699967L
sI2786
L9703192L
sI2787
L9707188L
sI2788
L9711306L
sI2789
L9714299L
sI2790
L9717127L
sI2791
L9719971L
sI2792
L9722829L
sI2793
L9725694L
sI2794
L9728546L
sI2795
L9731396L
sI2796
L9734268L
sI2797
L9737728L
sI2798
L9741084L
sI2799
L9744056L
sI2800
L9748410L
sI2801
L9751248L
sI2802
L9754108L
sI2803
L9756980L
sI2804
L9759824L
sI2805
L9762684L
sI2806
L9765548L
sI2807
L9768411L
sI2808
L9771280L
sI2809
L9774383L
sI2810
L9777491L
sI2811
L9780409L
sI2812
L9783426L
sI2813
L9786241L
sI2814
L9789368L
sI2815
L9792358L
sI2816
L9795624L
sI2817
L9798572L
sI2818
L9801643L
sI2819
L9804539L
sI2820
L9807483L
sI2821
L9810382L
sI2822
L9813284L
sI2823
L9816160L
sI2824
L9819007L
sI2825
L9822013L
sI2826
L9825353L
sI2827
L9828019L
sI2828
L9830543L
sI2829
L9833826L
sI2830
L9839418L
sI2831
L9841954L
sI2832
L9844253L
sI2833
L9847069L
sI2834
L9849850L
sI2835
L9852714L
sI2836
L9858251L
sI2837
L9862084L
sI2838
L9865352L
sI2839
L9870308L
sI2840
L9873518L
sI2841
L9876720L
sI2842
L9880121L
sI2843
L9883347L
sI2844
L9887351L
sI2845
L9891511L
sI2846
L9894501L
sI2847
L9897329L
sI2848
L9900178L
sI2849
L9903033L
sI2850
L9905898L
sI2851
L9908764L
sI2852
L9911610L
sI2853
L9914482L
sI2854
L9917944L
sI2855
L9921308L
sI2856
L9924291L
sI2857
L9928652L
sI2858
L9931490L
sI2859
L9934349L
sI2860
L9937217L
sI2861
L9940067L
sI2862
L9942932L
sI2863
L9945777L
sI2864
L9948633L
sI2865
L9951497L
sI2866
L9954608L
sI2867
L9957705L
sI2868
L9960600L
sI2869
L9963582L
sI2870
L9966367L
sI2871
L9969474L
sI2872
L9972444L
sI2873
L9975693L
sI2874
L9978605L
sI2875
L9981684L
sI2876
L9984583L
sI2877
L9987526L
sI2878
L9990431L
sI2879
L9993339L
sI2880
L9996212L
sI2881
L9999064L
sI2882
L10002080L
sI2883
L10005428L
sI2884
L10008094L
sI2885
L10010618L
sI2886
L10013897L
sI2887
L10019414L
sI2888
L10021950L
sI2889
L10024249L
sI2890
L10027065L
sI2891
L10029846L
sI2892
L10032710L
sI2893
L10038440L
sI2894
L10042256L
sI2895
L10045524L
sI2896
L10050646L
sI2897
L10053857L
sI2898
L10057060L
sI2899
L10060454L
sI2900
L10063680L
sI2901
L10067669L
sI2902
L10071796L
sI2903
L10074786L
sI2904
L10077616L
sI2905
L10080462L
sI2906
L10083317L
sI2907
L10086185L
sI2908
L10089048L
sI2909
L10091895L
sI2910
L10094767L
sI2911
L10098225L
sI2912
L10101588L
sI2913
L10104570L
sI2914
L10109008L
sI2915
L10111856L
sI2916
L10114726L
sI2917
L10117595L
sI2918
L10120444L
sI2919
L10123307L
sI2920
L10126152L
sI2921
L10129009L
sI2922
L10131875L
sI2923
L10134989L
sI2924
L10138086L
sI2925
L10140978L
sI2926
L10143957L
sI2927
L10146748L
sI2928
L10149861L
sI2929
L10152825L
sI2930
L10156071L
sI2931
L10158980L
sI2932
L10162055L
sI2933
L10164954L
sI2934
L10167897L
sI2935
L10170801L
sI2936
L10173708L
sI2937
L10176589L
sI2938
L10179442L
sI2939
L10182459L
sI2940
L10185807L
sI2941
L10188473L
sI2942
L10190997L
sI2943
L10194282L
sI2944
L10199985L
sI2945
L10202521L
sI2946
L10204820L
sI2947
L10207636L
sI2948
L10210424L
sI2949
L10213292L
sI2950
L10219844L
sI2951
L10223884L
sI2952
L10227174L
sI2953
L10233055L
sI2954
L10236274L
sI2955
L10239497L
sI2956
L10242949L
sI2957
L10246179L
sI2958
L10250295L
sI2959
L10254795L
sI2960
L10257789L
sI2961
L10260623L
sI2962
L10263475L
sI2963
L10266333L
sI2964
L10269208L
sI2965
L10272086L
sI2966
L10274946L
sI2967
L10277824L
sI2968
L10281318L
sI2969
L10284710L
sI2970
L10287725L
sI2971
L10292354L
sI2972
L10295203L
sI2973
L10298075L
sI2974
L10300962L
sI2975
L10303830L
sI2976
L10306701L
sI2977
L10309545L
sI2978
L10312407L
sI2979
L10315278L
sI2980
L10318412L
sI2981
L10321519L
sI2982
L10324415L
sI2983
L10327409L
sI2984
L10330219L
sI2985
L10333319L
sI2986
L10336289L
sI2987
L10339572L
sI2988
L10342519L
sI2989
L10345636L
sI2990
L10348547L
sI2991
L10351517L
sI2992
L10354434L
sI2993
L10357353L
sI2994
L10360229L
sI2995
L10363094L
sI2996
L10366154L
sI2997
L10369536L
sI2998
L10372202L
sI2999
L10374726L
sI3000
L10378079L
sI3001
L10384595L
sI3002
L10387131L
sI3003
L10389430L
sI3004
L10392246L
sI3005
L10395027L
sI3006
L10397890L
sI3007
L10403413L
sI3008
L10407185L
sI3009
L10410451L
sI3010
L10415405L
sI3011
L10418608L
sI3012
L10421809L
sI3013
L10425195L
sI3014
L10428420L
sI3015
L10432379L
sI3016
L10436429L
sI3017
L10439420L
sI3018
L10442248L
sI3019
L10445096L
sI3020
L10447950L
sI3021
L10450812L
sI3022
L10453673L
sI3023
L10456521L
sI3024
L10459394L
sI3025
L10462849L
sI3026
L10466213L
sI3027
L10469191L
sI3028
L10473482L
sI3029
L10476318L
sI3030
L10479172L
sI3031
L10482042L
sI3032
L10484889L
sI3033
L10487750L
sI3034
L10490592L
sI3035
L10493447L
sI3036
L10496312L
sI3037
L10499423L
sI3038
L10502519L
sI3039
L10505410L
sI3040
L10508390L
sI3041
L10511175L
sI3042
L10514274L
sI3043
L10517240L
sI3044
L10520476L
sI3045
L10523381L
sI3046
L10526450L
sI3047
L10529353L
sI3048
L10532301L
sI3049
L10535208L
sI3050
L10538115L
sI3051
L10540979L
sI3052
L10543824L
sI3053
L10546834L
sI3054
L10550175L
sI3055
L10552841L
sI3056
L10555365L
sI3057
L10558648L
sI3058
L10564149L
sI3059
L10566685L
sI3060
L10568984L
sI3061
L10571800L
sI3062
L10574580L
sI3063
L10577443L
sI3064
L10583114L
sI3065
L10586894L
sI3066
L10590164L
sI3067
L10595251L
sI3068
L10598460L
sI3069
L10601659L
sI3070
L10605059L
sI3071
L10608283L
sI3072
L10612258L
sI3073
L10616361L
sI3074
L10619351L
sI3075
L10622179L
sI3076
L10625020L
sI3077
L10627869L
sI3078
L10630728L
sI3079
L10633587L
sI3080
L10636435L
sI3081
L10639306L
sI3082
L10642753L
sI3083
L10646117L
sI3084
L10649102L
sI3085
L10653376L
sI3086
L10656220L
sI3087
L10659089L
sI3088
L10661960L
sI3089
L10664800L
sI3090
L10667656L
sI3091
L10670498L
sI3092
L10673349L
sI3093
L10676211L
sI3094
L10679322L
sI3095
L10682423L
sI3096
L10685318L
sI3097
L10688298L
sI3098
L10691087L
sI3099
L10694199L
sI3100
L10697160L
sI3101
L10700406L
sI3102
L10703314L
sI3103
L10706381L
sI3104
L10709285L
sI3105
L10712234L
sI3106
L10715141L
sI3107
L10718049L
sI3108
L10720920L
sI3109
L10723765L
sI3110
L10726778L
sI3111
L10730122L
sI3112
L10732788L
sI3113
L10735312L
sI3114
L10738591L
sI3115
L10744239L
sI3116
L10746775L
sI3117
L10749074L
sI3118
L10751890L
sI3119
L10754669L
sI3120
L10757531L
sI3121
L10762967L
sI3122
L10766719L
sI3123
L10769979L
sI3124
L10774866L
sI3125
L10778065L
sI3126
L10781265L
sI3127
L10784646L
sI3128
L10787870L
sI3129
L10791828L
sI3130
L10795800L
sI3131
L10798792L
sI3132
L10801623L
sI3133
L10804463L
sI3134
L10807309L
sI3135
L10810162L
sI3136
L10813004L
sI3137
L10815848L
sI3138
L10818718L
sI3139
L10822162L
sI3140
L10825519L
sI3141
L10828492L
sI3142
L10832725L
sI3143
L10835563L
sI3144
L10838416L
sI3145
L10841274L
sI3146
L10844102L
sI3147
L10846956L
sI3148
L10849798L
sI3149
L10852651L
sI3150
L10855507L
sI3151
L10858612L
sI3152
L10861711L
sI3153
L10864595L
sI3154
L10867576L
sI3155
L10870351L
sI3156
L10873449L
sI3157
L10876407L
sI3158
L10879643L
sI3159
L10882543L
sI3160
L10885610L
sI3161
L10888502L
sI3162
L10891426L
sI3163
L10894320L
sI3164
L10897219L
sI3165
L10900077L
sI3166
L10902921L
sI3167
L10905922L
sI3168
L10909258L
sI3169
L10911924L
sI3170
L10914448L
sI3171
L10917727L
sI3172
L10923139L
sI3173
L10925675L
sI3174
L10927974L
sI3175
L10930790L
sI3176
L10933572L
sI3177
L10936434L
sI3178
L10941900L
sI3179
L10945645L
sI3180
L10948908L
sI3181
L10953812L
sI3182
L10957014L
sI3183
L10960214L
sI3184
L10963595L
sI3185
L10966819L
sI3186
L10970775L
sI3187
L10974763L
sI3188
L10977755L
sI3189
L10980586L
sI3190
L10983429L
sI3191
L10986278L
sI3192
L10989131L
sI3193
L10991976L
sI3194
L10994820L
sI3195
L10997693L
sI3196
L11001137L
sI3197
L11004494L
sI3198
L11007473L
sI3199
L11011744L
sI3200
L11014582L
sI3201
L11017441L
sI3202
L11020302L
sI3203
L11023133L
sI3204
L11025990L
sI3205
L11028832L
sI3206
L11031682L
sI3207
L11034538L
sI3208
L11037643L
sI3209
L11040742L
sI3210
L11043626L
sI3211
L11046608L
sI3212
L11049386L
sI3213
L11052484L
sI3214
L11055445L
sI3215
L11058684L
sI3216
L11061587L
sI3217
L11064654L
sI3218
L11067546L
sI3219
L11070473L
sI3220
L11073370L
sI3221
L11076269L
sI3222
L11079130L
sI3223
L11081974L
sI3224
L11084978L
sI3225
L11088314L
sI3226
L11090980L
sI3227
L11093504L
sI3228
L11096777L
sI3229
L11102222L
sI3230
L11104758L
sI3231
L11107057L
sI3232
L11109873L
sI3233
L11112655L
sI3234
L11115517L
sI3235
L11120983L
sI3236
L11124728L
sI3237
L11127991L
sI3238
L11132895L
sI3239
L11136097L
sI3240
L11139297L
sI3241
L11142678L
sI3242
L11145902L
sI3243
L11149858L
sI3244
L11153846L
sI3245
L11156838L
sI3246
L11159669L
sI3247
L11162512L
sI3248
L11165361L
sI3249
L11168214L
sI3250
L11171059L
sI3251
L11173903L
sI3252
L11176776L
sI3253
L11180220L
sI3254
L11183577L
sI3255
L11186556L
sI3256
L11190827L
sI3257
L11193665L
sI3258
L11196524L
sI3259
L11199385L
sI3260
L11202216L
sI3261
L11205073L
sI3262
L11207915L
sI3263
L11210765L
sI3264
L11213621L
sI3265
L11216726L
sI3266
L11219825L
sI3267
L11222709L
sI3268
L11225691L
sI3269
L11228469L
sI3270
L11231567L
sI3271
L11234528L
sI3272
L11237767L
sI3273
L11240670L
sI3274
L11243737L
sI3275
L11246629L
sI3276
L11249556L
sI3277
L11252453L
sI3278
L11255352L
sI3279
L11258213L
sI3280
L11261057L
sI3281
L11264061L
sI3282
L11267397L
sI3283
L11270063L
sI3284
L11272587L
sI3285
L11275860L
sI3286
L11281305L
sI3287
L11283841L
sI3288
L11286140L
sI3289
L11288956L
sI3290
L11291737L
sI3291
L11294600L
sI3292
L11300111L
sI3293
L11303885L
sI3294
L11307151L
sI3295
L11312119L
sI3296
L11315322L
sI3297
L11318522L
sI3298
L11321904L
sI3299
L11325129L
sI3300
L11329096L
sI3301
L11333113L
sI3302
L11336103L
sI3303
L11338931L
sI3304
L11341773L
sI3305
L11344621L
sI3306
L11347476L
sI3307
L11350326L
sI3308
L11353174L
sI3309
L11356044L
sI3310
L11359499L
sI3311
L11362862L
sI3312
L11365840L
sI3313
L11370101L
sI3314
L11372936L
sI3315
L11375790L
sI3316
L11378656L
sI3317
L11381489L
sI3318
L11384344L
sI3319
L11387186L
sI3320
L11390040L
sI3321
L11392903L
sI3322
L11396013L
sI3323
L11399111L
sI3324
L11402002L
sI3325
L11404984L
sI3326
L11407760L
sI3327
L11410858L
sI3328
L11413818L
sI3329
L11417058L
sI3330
L11419964L
sI3331
L11423030L
sI3332
L11425925L
sI3333
L11428862L
sI3334
L11431761L
sI3335
L11434662L
sI3336
L11437526L
sI3337
L11440370L
sI3338
L11443382L
sI3339
L11446729L
sI3340
L11449395L
sI3341
L11451919L
sI3342
L11455194L
sI3343
L11460682L
sI3344
L11463218L
sI3345
L11465668L
sI3346
L11468112L
sI3347
L11470422L
sI3348
L11472736L
sI3349
L11475108L
sI3350
L11477480L
sI3351
L11479852L
sI3352
L11482224L
sI3353
L11484596L
sI3354
L11486968L
sI3355
L11489340L
sI3356
L11491712L
sI3357
L11494084L
sI3358
L11496456L
sI3359
L11498828L
sI3360
L11501200L
sI3361
L11503572L
sI3362
L11505944L
sI3363
L11508316L
sI3364
L11510688L
sI3365
L11513060L
sI3366
L11515529L
sI3367
L11517901L
sI3368
L11520273L
sI3369
L11522645L
sI3370
L11525017L
sI3371
L11527389L
sI3372
L11529761L
sI3373
L11532133L
sI3374
L11534505L
sI3375
L11536877L
sI3376
L11539249L
sI3377
L11541621L
sI3378
L11543993L
sI3379
L11546365L
sI3380
L11548737L
sI3381
L11551109L
sI3382
L11553481L
sI3383
L11555853L
sI3384
L11558225L
sI3385
L11560597L
sI3386
L11562969L
sI3387
L11565341L
sI3388
L11567713L
sI3389
L11570085L
sI3390
L11572457L
sI3391
L11574829L
sI3392
L11577201L
sI3393
L11579573L
sI3394
L11581945L
sI3395
L11584317L
sI3396
L11586689L
sI3397
L11589061L
sI3398
L11591433L
sI3399
L11593805L
sI3400
L11596177L
sI3401
L11598549L
sI3402
L11600921L
sI3403
L11603293L
sI3404
L11605665L
sI3405
L11608037L
sI3406
L11610409L
sI3407
L11612781L
sI3408
L11615153L
sI3409
L11617525L
sI3410
L11619897L
sI3411
L11622269L
sI3412
L11624641L
sI3413
L11627013L
sI3414
L11629385L
sI3415
L11631757L
sI3416
L11634129L
sI3417
L11636501L
sI3418
L11638873L
sI3419
L11641245L
sI3420
L11643617L
sI3421
L11645989L
sI3422
L11648361L
sI3423
L11650733L
sI3424
L11653105L
sI3425
L11655477L
sI3426
L11657849L
sI3427
L11660221L
sI3428
L11662593L
sI3429
L11664965L
sI3430
L11667337L
sI3431
L11669709L
sI3432
L11672081L
sI3433
L11674453L
sI3434
L11676825L
sI3435
L11679197L
sI3436
L11681569L
sI3437
L11683941L
sI3438
L11686313L
sI3439
L11688685L
sI3440
L11691057L
sI3441
L11693429L
sI3442
L11695801L
sI3443
L11698173L
sI3444
L11700545L
sI3445
L11702917L
sI3446
L11705289L
sI3447
L11707661L
sI3448
L11710033L
sI3449
L11712405L
sI3450
L11714777L
sI3451
L11717149L
sI3452
L11719521L
sI3453
L11721893L
sI3454
L11724265L
sI3455
L11726637L
sI3456
L11729009L
sI3457
L11731381L
sI3458
L11733753L
sI3459
L11736125L
sI3460
L11738497L
sI3461
L11740869L
sI3462
L11743241L
sI3463
L11745613L
sI3464
L11747985L
sI3465
L11750357L
sI3466
L11752729L
sI3467
L11755101L
sI3468
L11757473L
sI3469
L11759845L
sI3470
L11762217L
sI3471
L11764641L
sI3472
L11767073L
sI3473
L11769512L
sI3474
L11771922L
sI3475
L11774431L
sI3476
L11776936L
sI3477
L11779453L
sI3478
L11781978L
sI3479
L11784400L
sI3480
L11786814L
sI3481
L11789210L
sI3482
L11791713L
sI3483
L11795202L
sI3484
L11797714L
sI3485
L11800232L
sI3486
L11803577L
sI3487
L11806089L
sI3488
L11808607L
sI3489
L11811158L
sI3490
L11813693L
sI3491
L11816107L
sI3492
L11818510L
sI3493
L11821928L
sI3494
L11825537L
sI3495
L11829136L
sI3496
L11832271L
sI3497
L11835788L
sI3498
L11840241L
sI3499
L11843674L
sI3500
L11847889L
sI3501
L11851382L
sI3502
L11854777L
sI3503
L11858241L
sI3504
L11861850L
sI3505
L11864985L
sI3506
L11869200L
sI3507
L11872611L
sI3508
L11876220L
sI3509
L11879810L
sI3510
L11882945L
sI3511
L11886462L
sI3512
L11890712L
sI3513
L11894927L
sI3514
L11898306L
sI3515
L11900820L
sI3516
L11903333L
sI3517
L11905852L
sI3518
L11908153L
sI3519
L11910473L
sI3520
L11912771L
sI3521
L11915083L
sI3522
L11917387L
sI3523
L11919696L
sI3524
L11922008L
sI3525
L11924379L
sI3526
L11926750L
sI3527
L11929121L
sI3528
L11931492L
sI3529
L11933863L
sI3530
L11936234L
sI3531
L11938605L
sI3532
L11940976L
sI3533
L11943347L
sI3534
L11945718L
sI3535
L11948089L
sI3536
L11950460L
sI3537
L11952831L
sI3538
L11955202L
sI3539
L11957573L
sI3540
L11959944L
sI3541
L11962315L
sI3542
L11964686L
sI3543
L11967057L
sI3544
L11969428L
sI3545
L11971799L
sI3546
L11974170L
sI3547
L11976541L
sI3548
L11978912L
sI3549
L11981283L
sI3550
L11983654L
sI3551
L11986025L
sI3552
L11988396L
sI3553
L11990767L
sI3554
L11993138L
sI3555
L11995509L
sI3556
L11997880L
sI3557
L12000251L
sI3558
L12002622L
sI3559
L12004993L
sI3560
L12007364L
sI3561
L12009735L
sI3562
L12012106L
sI3563
L12014477L
sI3564
L12016848L
sI3565
L12019219L
sI3566
L12021590L
sI3567
L12023961L
sI3568
L12026332L
sI3569
L12028703L
sI3570
L12031074L
sI3571
L12033445L
sI3572
L12035816L
sI3573
L12038187L
sI3574
L12040558L
sI3575
L12042929L
sI3576
L12045300L
sI3577
L12047671L
sI3578
L12050042L
sI3579
L12052413L
sI3580
L12054784L
sI3581
L12057155L
sI3582
L12059526L
sI3583
L12061897L
sI3584
L12064268L
sI3585
L12066639L
sI3586
L12069010L
sI3587
L12071381L
sI3588
L12073752L
sI3589
L12076123L
sI3590
L12078494L
sI3591
L12080865L
sI3592
L12083236L
sI3593
L12085607L
sI3594
L12087978L
sI3595
L12090349L
sI3596
L12092720L
sI3597
L12095091L
sI3598
L12097462L
sI3599
L12099833L
sI3600
L12102204L
sI3601
L12104575L
sI3602
L12106946L
sI3603
L12109368L
sI3604
L12111799L
sI3605
L12114243L
sI3606
L12116437L
sI3607
L12118734L
sI3608
L12123784L
sI3609
L12128446L
sI3610
L12131457L
sI3611
L12135623L
sI3612
L12138760L
sI3613
L12141805L
sI3614
L12144222L
sI3615
L12146641L
sI3616
L12149708L
sI3617
L12152836L
sI3618
L12156009L
sI3619
L12159096L
sI3620
L12162139L
sI3621
L12165262L
sI3622
L12168337L
sI3623
L12171490L
sI3624
L12174563L
sI3625
L12177565L
sI3626
L12179984L
sI3627
L12183034L
sI3628
L12186067L
sI3629
L12189173L
sI3630
L12192540L
sI3631
L12195830L
sI3632
L12199102L
sI3633
L12202177L
sI3634
L12205317L
sI3635
L12208514L
sI3636
L12211215L
sI3637
L12222831L
sI3638
L12225261L
sI3639
L12227701L
sI3640
L12230141L
sI3641
L12232563L
sI3642
L12235015L
sI3643
L12237443L
sI3644
L12239867L
sI3645
L12242303L
sI3646
L12244731L
sI3647
L12247175L
sI3648
L12249601L
sI3649
L12252025L
sI3650
L12254497L
sI3651
L12256931L
sI3652
L12259357L
sI3653
L12261811L
sI3654
L12264251L
sI3655
L12266695L
sI3656
L12269143L
sI3657
L12271593L
sI3658
L12274055L
sI3659
L12276515L
sI3660
L12278979L
sI3661
L12281447L
sI3662
L12290860L
sI3663
L12293798L
sI3664
L12296826L
sI3665
L12299842L
sI3666
L12302874L
sI3667
L12305836L
sI3668
L12308852L
sI3669
L12311745L
sI3670
L12314642L
sI3671
L12317624L
sI3672
L12320588L
sI3673
L12323694L
sI3674
L12326819L
sI3675
L12329938L
sI3676
L12333024L
sI3677
L12336155L
sI3678
L12339343L
sI3679
L12341762L
sI3680
L12344135L
sI3681
L12347200L
sI3682
L12350265L
sI3683
L12353355L
sI3684
L12355777L
sI3685
L12358807L
sI3686
L12361245L
sI3687
L12363685L
sI3688
L12366674L
sI3689
L12369730L
sI3690
L12372459L
sI3691
L12374990L
sI3692
L12377786L
sI3693
L12380685L
sI3694
L12383100L
sI3695
L12385528L
sI3696
L12387934L
sI3697
L12390430L
sI3698
L12392926L
sI3699
L12395422L
sI3700
L12397918L
sI3701
L12400414L
sI3702
L12402910L
sI3703
L12405406L
sI3704
L12407902L
sI3705
L12410398L
sI3706
L12412894L
sI3707
L12415390L
sI3708
L12417886L
sI3709
L12420382L
sI3710
L12423285L
sI3711
L12426039L
sI3712
L12428928L
sI3713
L12431778L
sI3714
L12434542L
sI3715
L12437324L
sI3716
L12440096L
sI3717
L12442930L
sI3718
L12445710L
sI3719
L12448572L
sI3720
L12451396L
sI3721
L12454174L
sI3722
L12457014L
sI3723
L12459792L
sI3724
L12462632L
sI3725
L12465388L
sI3726
L12468174L
sI3727
L12471022L
sI3728
L12473802L
sI3729
L12476644L
sI3730
L12479412L
sI3731
L12482242L
sI3732
L12485022L
sI3733
L12487800L
sI3734
L12490222L
sI3735
L12493000L
sI3736
L12495431L
sI3737
L12497747L
sI3738
L12500360L
sI3739
L12502678L
sI3740
L12505018L
sI3741
L12507548L
sI3742
L12510017L
sI3743
L12513177L
sI3744
L12516053L
sI3745
L12518652L
sI3746
L12521270L
sI3747
L12523784L
sI3748
L12526402L
sI3749
L12528914L
sI3750
L12531694L
sI3751
L12534570L
sI3752
L12537169L
sI3753
L12539787L
sI3754
L12542301L
sI3755
L12544919L
sI3756
L12547431L
sI3757
L12550233L
sI3758
L12552542L
sI3759
L12555072L
sI3760
L12557477L
sI3761
L12560034L
sI3762
L12562653L
sI3763
L12565286L
sI3764
L12567835L
sI3765
L12570446L
sI3766
L12573057L
sI3767
L12575606L
sI3768
L12578157L
sI3769
L12580740L
sI3770
L12583244L
sI3771
L12585722L
sI3772
L12588586L
sI3773
L12591366L
sI3774
L12594168L
sI3775
L12596477L
sI3776
L12598993L
sI3777
L12601496L
sI3778
L12604036L
sI3779
L12606638L
sI3780
L12609190L
sI3781
L12611804L
sI3782
L12614356L
sI3783
L12616906L
sI3784
L12619456L
sI3785
L12622000L
sI3786
L12624606L
sI3787
L12627242L
sI3788
L12629816L
sI3789
L12632390L
sI3790
L12634914L
sI3791
L12637443L
sI3792
L12639972L
sI3793
L12642503L
sI3794
L12645027L
sI3795
L12647432L
sI3796
L12649927L
sI3797
L12652422L
sI3798
L12654917L
sI3799
L12657412L
sI3800
L12659907L
sI3801
L12662402L
sI3802
L12664897L
sI3803
L12667392L
sI3804
L12669887L
sI3805
L12672382L
sI3806
L12674877L
sI3807
L12677372L
sI3808
L12679867L
sI3809
L12682503L
sI3810
L12685882L
sI3811
L12688703L
sI3812
L12695426L
sI3813
L12698263L
sI3814
L12702516L
sI3815
L12706769L
sI3816
L12715031L
sI3817
L12723337L
sI3818
L12731599L
sI3819
L12736640L
sI3820
L12745740L
s.