(dp0
S'{31B2F340-016D-11D2-945F-00C04FB984F9}'
p1
I3765
sS'Creation-Time'
p2
I143
sS'Leaf'
p3
I1617
sS'94f238bf-831c-11d6-977b-00c04f613221'
p4
I3654
sS'BCKUPKEY_P Secret'
p5
I4124
sS'ms-FVE-VolumeGuid'
p6
I640
sS'MS-SQL-LastDiagnosticDate'
p7
I724
sS'msSFU-30-Max-Uid-Number'
p8
I1261
sS'Query-Policy'
p9
I1809
sS'ms-DS-Optional-Feature-GUID'
p10
I479
sS'f0842b44-bc03-46a1-a860-006e8527fccd'
p11
I3734
sS'Dns-Secure-Secondaries'
p12
I199
sS'_ldap._tcp.Default-First-Site-Name._sites.dc'
p13
I4078
sS'Group-Type'
p14
I295
sS'ACS-Time-Of-Day'
p15
I54
sS'dcb3c95d-deb7-4c51-ad13-43a7d5d06fc7'
p16
I3674
sS'ms-DS-Device-ID'
p17
I1448
sS'Msi-Script'
p18
I777
sS'ms-DS-GeoCoordinates-Longitude'
p19
I1408
sS'ms-TPM-Information-Objects-Container'
p20
I1962
sS'Default-First-Site-Name'
p21
I2010
sS'Partial-Attribute-Set'
p22
I923
sS'ms-DS-Minimum-Password-Length'
p23
I497
sS'Print-Start-Time'
p24
I1004
sS'@'
p25
I4005
sS'meetingLanguage'
p26
I403
sS'Network Service'
p27
I3964
sS'ms-DS-Local-Effective-Deletion-Time'
p28
I503
sS'Serial-Number'
p29
I1094
sS'Operating-System'
p30
I898
sS'Machine-Password-Change-Interval'
p31
I378
sS'Ipsec-Negotiation-Policy'
p32
I1611
sS'6bcd5689-8314-11d6-977b-00c04f613221'
p33
I3869
sS'ms-DS-Value-Type-Reference'
p34
I595
sS'simpleSecurityObject'
p35
I1867
sS'rpc-Ns-Annotation'
p36
I1066
sS'Nt-Pwd-History'
p37
I882
sS'SYSVOL Share'
p38
I4047
sS'ms-DS-Non-Members'
p39
I518
sS'Ipsec-Name'
p40
I325
sS'Ipsec-Policy'
p41
I1615
sS'ms-DS-Az-Major-Version'
p42
I453
sS'User-Force-Change-Password'
p43
I2117
sS'IpServiceProtocol'
p44
I1234
sS'attributeCertificateAttribute'
p45
I86
sS'ms-DFS-Deleted-Link-v2'
p46
I1935
sS'Owner Rights'
p47
I3995
sS'NTDS-Site-Settings'
p48
I1778
sS'MS-DS-Text'
p49
I2100
sS'MemberUid'
p50
I1230
sS'ms-PKI-Credential-Roaming-Tokens'
p51
I661
sS'dhcp-Subnets'
p52
I181
sS'Version-Number-Hi'
p53
I1202
sS'CA-Connect'
p54
I109
sS'Partitions'
p55
I2042
sS'System'
p56
I2017
sS'ms-DS-Tasks-For-Az-Role-BL'
p57
I569
sS'm.root-servers.net'
p58
I4018
sS'FRS-Partner-Auth-Level'
p59
I263
sS'ms-WMI-stringDefault'
p60
I768
sS'11c39bed-4bee-45f5-b195-8da0e05b573a'
p61
I3697
sS'mSMQEnterpriseSettings-Display'
p62
I2233
sS'Bridgehead-Transport-List'
p63
I101
sS'Retired-Repl-DSA-Signatures'
p64
I1049
sS'DNS-Property'
p65
I196
sS'ms-Kds-SecretAgreement-AlgorithmID'
p66
I1389
sS'Frs-Computer-Reference'
p67
I249
sS'ms-DS-Cloud-IsEnabled'
p68
I1460
sS'ACS-Resource-Limits'
p69
I1490
sS'Owner'
p70
I915
sS'Backup Operators'
p71
I3927
sS'msSFU-30-Map-Filter'
p72
I1251
sS'ACS-Identity-Name'
p73
I27
sS'Group'
p74
I1584
sS'server-Display'
p75
I2211
sS'Dns-Root'
p76
I198
sS'ms-TAPI-Protocol-Id'
p77
I735
sS'MSMQ-Computer-Type-Ex'
p78
I784
sS'Local-Policy-Flags'
p79
I360
sS'Print-Orientations-Supported'
p80
I995
sS'ms-DS-Issuer-Certificates'
p81
I1437
sS'Phone-Ip-Primary'
p82
I935
sS'ComPartitionSets'
p83
I3817
sS'ms-DFS-Last-Modified-v2'
p84
I1317
sS'ms-DS-SyncServerUrl'
p85
I1461
sS'ms-DS-Security-Group-Extra-Classes'
p86
I564
sS'{6AC1786C-016F-11D2-945F-00C04fB984F9}'
p87
I3768
sS'Options'
p88
I904
sS'42f68ac6-c456-47f6-99cb-460025454307'
p89
I4062
sS'_ldap._tcp.pdc'
p90
I4081
sS'ms-DFS-Link-Path-v2'
p91
I1319
sS'uniqueMember'
p92
I1176
sS'organizationalStatus'
p93
I908
sS'ms-WMI-PolicyTemplate'
p94
I1729
sS'Person'
p95
I1528
sS'g.root-servers.net'
p96
I4012
sS'ipsecNegotiationPolicy{59319BDF-5EE3-11D2-ACE8-0060B0ECCA17}'
p97
I3785
sS'MS-TS-ManagingLS'
p98
I1301
sS'Reload-SSL-Certificate'
p99
I2183
sS'ms-DS-Logon-Time-Sync-Interval'
p100
I493
sS'ms-DFSR-FileFilter'
p101
I615
sS'room'
p102
I1823
sS'dhcp-Servers'
p103
I178
sS'DNS-Host-Name-Attributes'
p104
I2167
sS'GidNumber'
p105
I1219
sS'ms-DS-Computer-AuthN-Policy'
p106
I1476
sS'c0ad80b4-8e84-4cc4-9163-2f84649bcc42'
p107
I3723
sS'ms-DS-Device-OS-Version'
p108
I1446
sS'Role-Occupant'
p109
I1063
sS'3b3adbdb-4485-4559-aed8-9811c4bf90e4'
p110
I3687
sS'Bridgehead-Server-List-BL'
p111
I100
sS'ms-DFSR-Keywords'
p112
I618
sS'4664e973-cb20-4def-b3d5-559d6fe123e0'
p113
I3698
sS'Deleted Objects'
p114
I2020
sS'See-Also'
p115
I1092
sS'DEFAULTIPSITELINK'
p116
I2037
sS'Telex-Number'
p117
I1148
sS'ms-DS-SiteName'
p118
I527
sS'MemberNisNetgroup'
p119
I1231
sS'Phone-Home-Primary'
p120
I933
sS'MSMQ-Out-Routing-Servers'
p121
I809
sS'ms-PKI-Certificate-Policy'
p122
I660
sS'ms-DFSR-ContentSet'
p123
I1683
sS'meetingIsEncrypted'
p124
I401
sS'ms-DS-AuthenticatedTo-Accountlist'
p125
I442
sS'msRASSavedCallbackNumber'
p126
I848
sS'3467dae5-dedd-4648-9066-f48ac186b20a'
p127
I3625
sS'GPC-Machine-Extension-Names'
p128
I289
sS'Public-Key-Policy'
p129
I1021
sS'App-Schema-Version'
p130
I78
sS'ms-RRAS-Attribute'
p131
I680
sS'ms-TPM-Information-Object'
p132
I1964
sS'IpService'
p133
I1899
sS'Network-Address'
p134
I874
sS'Network Configuration Operators'
p135
I3930
sS'ms-DS-Mastered-By'
p136
I494
sS'Open-Address-Book'
p137
I2126
sS'Scope-Flags'
p138
I1085
sS'404'
p139
I3507
sS'Admin-Description'
p140
I68
sS'Rights-Guid'
p141
I1062
sS'Group-Of-Names'
p142
I1586
sS'SubSchemaSubEntry'
p143
I1129
sS'ms-DFSR-DfsLinkTarget'
p144
I627
sS'X509-Cert'
p145
I1216
sS'Dns-Allow-XFR'
p146
I193
sS'a96e2ed5-7a7c-4d5c-9d5d-965eca0051da'
p147
I3682
sS'Run-Protect-Admin-Groups-Task'
p148
I2185
sS'eda27b49-e610-11d6-9793-00c04f613221'
p149
I3658
sS'Send-To'
p150
I2120
sS'dhcp-Sites'
p151
I179
sS'Object-Class'
p152
I886
sS'rpcContainer-Display'
p153
I2230
sS'msmq-Receive-journal'
p154
I2149
sS'PKI-Key-Usage'
p155
I952
sS'rpc-Group'
p156
I1829
sS'ms-DS-Secondary-KrbTgt-Number'
p157
I581
sS'Print-Number-Up'
p158
I994
sS'EFSPolicy'
p159
I227
sS'407'
p160
I2367
sS'UnixHomeDirectory'
p161
I1221
sS'405'
p162
I2253
sS'ms-DS-AuthN-Policy-Silo-Members'
p163
I1472
sS'401'
p164
I2196
sS'_kpasswd._udp'
p165
I4097
sS'Inter-Site-Transport'
p166
I1601
sS'408'
p167
I2424
sS'40E'
p168
I2709
sS'40D'
p169
I2652
sS'40C'
p170
I2595
sS'ms-Authz-Last-Effective-Security-Policy'
p171
I1375
sS'ee0f3271-eb51-414a-bdac-8f9ba6397a39'
p172
I3717
sS'ms-DS-Az-LDAP-Query'
p173
I452
sS'Subnets'
p174
I2034
sS'MS-SQL-SQLPublication'
p175
I1709
sS'MS-SQL-AllowSnapshotFilesFTPDownloading'
p176
I731
sS'dhcp-Flags'
p177
I168
sS'E-mail-Addresses'
p178
I226
sS'f4728883-84dd-483c-9897-274f2ebcf11e'
p179
I3901
sS'msSFU-30-Is-Valid-Container'
p180
I1267
sS'ms-DS-AuthN-Policy-Silos'
p181
I1998
sS'General-Information'
p182
I2122
sS'98de1d3e-6611-443b-8b4e-f4337f1ded0b'
p183
I3836
sS'MS-SQL-OLAPDatabase'
p184
I1713
sS'Phone-Office-Other'
p185
I939
sS'RID Manager$'
p186
I3999
sS'Address-Type'
p187
I65
sS'msSFU-30-Max-Gid-Number'
p188
I1260
sS'IpProtocolNumber'
p189
I1235
sS'User-Shared-Folder-Other'
p190
I1190
sS'OncRpcNumber'
p191
I1236
sS'992fe1d0-6591-4f24-a163-c820fcb7f308'
p192
I3715
sS'Dynamic-LDAP-Server'
p193
I225
sS'MS-SQL-LastBackupDate'
p194
I723
sS'Supplemental-Credentials'
p195
I1133
sS'ms-DS-Lockout-Observation-Window'
p196
I505
sS'GP-Options'
p197
I286
sS'6b800a81-affe-4a15-8e41-6ea0c7aa89e4'
p198
I3638
sS'Employee-Type'
p199
I230
sS'38618886-98ee-4e42-8cf1-d9a2cd9edf8b'
p200
I3746
sS'ms-ieee-80211-Policy'
p201
I1691
sS'Local Service'
p202
I3963
sS'ms-Kds-RootKeyData'
p203
I1393
sS'documentPublisher'
p204
I204
sS'f3dd09dd-25e8-4f9c-85df-12d6d2f2f2f5'
p205
I3827
sS'_kerberos._tcp.Default-First-Site-Name._sites.dc\\nDEL:41c84848-9258-43f7-8e33-db7c748ba07c'
p206
I4036
sS'UidNumber'
p207
I1218
sS'Address-Home'
p208
I63
sS'msSFU-30-Order-Number'
p209
I1253
sS'ms-Kds-PrivateKey-Length'
p210
I1392
sS'Object-Classes'
p211
I888
sS'ms-DS-SPN-Suffixes'
p212
I567
sS'MS-DRM-Identity-Certificate'
p213
I433
sS'_ldap._tcp\\nDEL:e14a25af-9540-4f32-a549-60a3dddde85b'
p214
I4025
sS'Site-Link'
p215
I1871
sS'ms-Imaging-PSPs'
p216
I1693
sS'MSMQ-Owner-ID'
p217
I810
sS'msSFU-30-Result-Attributes'
p218
I1250
sS'Has-Master-NCs'
p219
I297
sS'ms-DS-SD-Reference-Domain'
p220
I563
sS'MSMQ-In-Routing-Servers'
p221
I795
sS'mSMQConfiguration-Display'
p222
I2232
sS'International-ISDN-Number'
p223
I318
sS'Query-Policy-Object'
p224
I1029
sS'Servers'
p225
I2011
sS'msCOM-PartitionSet-Display'
p226
I2248
sS'Modified-Count'
p227
I421
sS'6bcd567f-8314-11d6-977b-00c04f613221'
p228
I3859
sS'Print-Collate'
p229
I975
sS'Entry-TTL'
p230
I234
sS'RID-Set'
p231
I1821
sS'DS-Execute-Intentions-Script'
p232
I2173
sS'Per-Msg-Dialog-Display-Table'
p233
I928
sS'MSMQ-OS-Type'
p234
I808
sS'MSMQ-Dependent-Client-Service'
p235
I787
sS'1e269508-f862-4c4a-b01f-420d26c4ff8c'
p236
I3737
sS'ms-DS-Registered-Users'
p237
I1442
sS'Bad-Password-Time'
p238
I97
sS'ms-DFS-Schema-Major-Version'
p239
I1323
sS'MSMQ-Service-Type'
p240
I823
sS'Poss-Superiors'
p241
I959
sS'Schema-ID-GUID'
p242
I1081
sS'RDS Endpoint Servers'
p243
I3940
sS'ms-TS-Reconnection-Action'
p244
I1277
sS'FRS-Working-Path'
p245
I277
sS'Site-Object'
p246
I1119
sS'6bcd567c-8314-11d6-977b-00c04f613221'
p247
I3856
sS'Has-Partial-Replica-NCs'
p248
I298
sS'ms-DS-PSO-Applies-To'
p249
I508
sS'Admin-Multiselect-Property-Pages'
p250
I70
sS'WellKnown Security Principals'
p251
I3621
sS'Self-Membership'
p252
I2159
sS'MS-SQL-SQLServer'
p253
I1703
sS'ms-DFSR-LocalSettings'
p254
I1671
sS'msSFU-30-Search-Attributes'
p255
I1249
sS'9d17b863-18c3-497d-9bde-45ddb95fcb65'
p256
I3696
sS'Operating-System-Version'
p257
I901
sS'ms-IIS-FTP-Root'
p258
I648
sS'Send-As'
p259
I2118
sS'MicrosoftDNS'
p260
I4003
sS'Show-In-Advanced-View-Only'
p261
I1113
sS'ms-DS-Behavior-Version'
p262
I462
sS'Sync-Attributes'
p263
I1136
sS'PolicyType'
p264
I3821
sS'System-Auxiliary-Class'
p265
I1140
sS'DS-Replication-Get-Changes'
p266
I2130
sS'meetingURL'
p267
I415
sS'Change-PDC'
p268
I2138
sS'ms-DFSR-Flags'
p269
I619
sS'ms-DS-GroupMSAMembership'
p270
I1405
sS'Certificate-Authority-Object'
p271
I118
sS'netboot-Server'
p272
I871
sS'ms-DS-Claim-Source'
p273
I1380
sS'Additional-Trusted-Service-Names'
p274
I58
sS'6bcd5685-8314-11d6-977b-00c04f613221'
p275
I3865
sS'ms-DS-Cloud-Extensions'
p276
I1988
sS'Lockout-Duration'
p277
I368
sS'c.root-servers.net'
p278
I4008
sS'Primary-Group-Token'
p279
I972
sS'ms-DS-Device-Registration-Service-Container'
p280
I1990
sS'documentSeries'
p281
I1559
sS'ms-Authz-Central-Access-Policy'
p282
I1974
sS'ms-DS-External-Store'
p283
I478
sS'Package-Name'
p284
I917
sS'Notification-List'
p285
I879
sS'CRL-Distribution-Point'
p286
I1536
sS'FRS-Flags'
p287
I259
sS'Max-Storage'
p288
I389
sS'Reports'
p289
I1044
sS'ms-WMI-QueryLanguage'
p290
I765
sS'ms-COM-PartitionSetLink'
p291
I430
sS'Enrollment-Providers'
p292
I233
sS'ms-WMI-TargetPath'
p293
I773
sS'ms-DS-Az-Scope-Name'
p294
I456
sS'Unexpire-Password'
p295
I2176
sS'ms-DFS-Ttl-v2'
p296
I1327
sS'BootParameter'
p297
I1241
sS'Proxied-Object-Name'
p298
I1017
sS'ms-DS-IsManaged'
p299
I1456
sS'804'
p300
I3393
sS'ms-DNS-Signature-Inception-Offset'
p301
I1364
sS'41D'
p302
I3279
sS'Netboot-DUID'
p303
I860
sS'41F'
p304
I3336
sS'ipsecPolicy{7238523C-70FA-11D1-864C-14A300000000}'
p305
I3795
sS'User-Password'
p306
I1185
sS'Phone-Home-Other'
p307
I932
sS'Search-Flags'
p308
I1088
sS'DS-UI-Shell-Maximum'
p309
I223
sS'nTFRSSubscriptions-Display'
p310
I2229
sS'6bcd567a-8314-11d6-977b-00c04f613221'
p311
I3854
sS'ms-DS-Device-Object-Version'
p312
I1449
sS'MS-SQL-InformationDirectory'
p313
I717
sS'MSMQ-Queue'
p314
I1765
sS'rpc-Ns-Object-ID'
p315
I1072
sS'ms-DS-ManagedPasswordInterval'
p316
I1404
sS'ms-DS-User-Allowed-To-Authenticate-From'
p317
I1463
sS'Allowed-Child-Classes'
p318
I74
sS'Organizational-Role'
p319
I1792
sS'96541a16-910a-4b66-acde-720a0dff03c7'
p320
I3691
sS'Primary-Group-ID'
p321
I971
sS'ms-DS-Filter-Containers'
p322
I480
sS'ms-TPM-Tpm-Information-For-Computer-BL'
p323
I1351
sS'Certificate Templates'
p324
I2058
sS'FRS-Update-Timeout'
p325
I274
sS'2972d92d-a07a-44ac-9cb0-bf243356f345'
p326
I3699
sS'ms-RADIUS-FramedIpv6Route'
p327
I686
sS'Organization'
p328
I6
sS'ms-Imaging-PSP-Identifier'
p329
I649
sS'NisNetgroup'
p330
I1909
sS'OID'
p331
I2064
sS'Dynamic-Object'
p332
I1572
sS'414'
p333
I2937
sS'415'
p334
I3051
sS'BootFile'
p335
I1242
sS'Ipsec-Data-Type'
p336
I321
sS'410'
p337
I2766
sS'411'
p338
I2823
sS'412'
p339
I2880
sS'413'
p340
I2994
sS'ms-net-ieee-80211-GP-PolicyReserved'
p341
I653
sS'netboot-SCP-BL'
p342
I870
sS'Rid'
p343
I1054
sS'Phone-Pager-Primary'
p344
I941
sS'419'
p345
I3222
sS'Privilege-Value'
p346
I1014
sS'secretary'
p347
I1090
sS'Auxiliary-Class'
p348
I96
sS'DMD'
p349
I10
sS'COM-Treat-As-Class-Id'
p350
I128
sS'Enterprise Admins'
p351
I3975
sS'Logon-Hours'
p352
I373
sS'User-Account-Restrictions'
p353
I2123
sS'ms-WMI-RangeParam'
p354
I1733
sS'ActiveDirectoryUpdate'
p355
I3748
sS'ms-DS-Object-Reference'
p356
I533
sS'Domain-Cross-Ref'
p357
I209
sS'ms-DS-Transformation-Rules-Compiled'
p358
I1414
sS'win-8hlnltb7vbr'
p359
I4106
sS'94f238c0-831c-11d6-977b-00c04f613221'
p360
I3655
sS'ms-WMI-int8ValidValues'
p361
I755
sS'd262aae8-41f7-48ed-9f35-56bbb677573d'
p362
I3897
sS'ACS-Aggregate-Token-Rate-Per-User'
p363
I16
sS'MS-DS-Number'
p364
I2097
sS'3e4f4182-ac5d-4378-b760-0eab2de593e2'
p365
I3875
sS'Batch'
p366
I3953
sS'From-Entry'
p367
I247
sS'ms-DS-Claim-Shares-Possible-Values-With'
p368
I1334
sS'ms-WMI-intMin'
p369
I750
sS'meetingType'
p370
I414
sS'ms-DS-Claim-Type'
p371
I1952
sS'Application-Version'
p372
I1506
sS'Account-Name-History'
p373
I15
sS'SYSVOL Subscription'
p374
I4052
sS'Range-Upper'
p375
I1032
sS'MSMQ-CSP-Name'
p376
I786
sS'ms-DFSR-Options2'
p377
I1311
sS'ACS-Non-Reserved-Peak-Rate'
p378
I44
sS'NTFRS-Member'
p379
I1780
sS'Teletex-Terminal-Identifier'
p380
I1147
sS'Employee-ID'
p381
I228
sS'ms-Authz-Central-Access-Rule'
p382
I1972
sS'Pwd-Last-Set'
p383
I1024
sS'Msi-Script-Size'
p384
I780
sS'Private-Information'
p385
I2179
sS'Windows NT'
p386
I2047
sS'FRS-Member-Reference'
p387
I261
sS'Cross-Ref'
p388
I1538
sS'Computer'
p389
I1522
sS'ipsecNFA{59319BE2-5EE3-11D2-ACE8-0060B0ECCA17}'
p390
I3778
sS'Logo'
p391
I371
sS'6fd48655-1698-497a-ac8d-8267ce01c80b'
p392
I3680
sS'ipsecNegotiationPolicy{59319C01-5EE3-11D2-ACE8-0060B0ECCA17}'
p393
I3794
sS'contact-Display'
p394
I2203
sS'ipsecNFA{6A1F5C6F-72B7-11D2-ACF0-0060B0ECCA17}'
p395
I3805
sS'MSMQ-Authenticate'
p396
I781
sS'serversContainer-Display'
p397
I2243
sS'2416c60a-fe15-4d7a-a61e-dffd5df864d3'
p398
I3828
sS'Operating-System-Hotfix'
p399
I899
sS'MSMQ-Nt4-Flags'
p400
I806
sS'ms-WMI-TargetNameSpace'
p401
I771
sS'ms-DS-Az-Domain-Timeout'
p402
I449
sS'AuthN Policy Configuration'
p403
I2111
sS'rpc-Entry'
p404
I1827
sS'DFSR-LocalSettings'
p405
I4050
sS'ms-net-ieee-8023-GP-PolicyReserved'
p406
I656
sS'20bf09b4-6d0b-4cd1-9c09-4231edf1209b'
p407
I3649
sS'meetingApplication'
p408
I393
sS'ms-DS-Phonetic-First-Name'
p409
I520
sS'associatedName'
p410
I85
sS'287e6f2b-e794-4318-9a21-e019c38db4d2'
p411
I4053
sS'ms-Exch-Owner-BL'
p412
I601
sS'USN-Intersite'
p413
I1196
sS'Postal-Address'
p414
I962
sS'Topology'
p415
I4048
sS'h.root-servers.net'
p416
I4013
sS'ms-Kds-PublicKey-Length'
p417
I1391
sS'Enable-Per-User-Reversibly-Encrypted-Password'
p418
I2177
sS'ms-SPP-CSVLK-Pid'
p419
I1338
sS'Initial-Auth-Incoming'
p420
I310
sS'FileLinks'
p421
I3758
sS'e9ee8d55-c2fb-4723-a333-c80ff4dfbf45'
p422
I3627
sS'MS-SQL-PublicationURL'
p423
I709
sS'39902c52-ef24-4b4b-8033-2c9dfdd173a2'
p424
I3648
sS'6bcd5683-8314-11d6-977b-00c04f613221'
p425
I3863
sS'Time-Refresh'
p426
I1154
sS'Print-Max-X-Extent'
p427
I985
sS'446f24ea-cfd5-4c52-8346-96e170bcb912'
p428
I3840
sS'Windows2003Update'
p429
I3747
sS'ACS-Total-No-Of-Flows'
p430
I55
sS'd85c0bfd-094f-4cad-a2b5-82ac9268475d'
p431
I3833
sS'MS-TS-ExpireDate4'
p432
I1296
sS'MS-TS-ExpireDate3'
p433
I1295
sS'MS-TS-ExpireDate2'
p434
I1294
sS'DBCS-Pwd'
p435
I153
sS'uniqueIdentifier'
p436
I1175
sS'Account-Expires'
p437
I13
sS'LDAP-IPDeny-List'
p438
I355
sS'netboot-Locally-Installed-OSes'
p439
I864
sS'jpegPhoto'
p440
I341
sS'Ipsec-ISAKMP-Policy'
p441
I1609
sS'ad://ext/AuthenticationSilo'
p442
I2067
sS'_gc._tcp'
p443
I4091
sS'Domain-Certificate-Authorities'
p444
I207
sS'State-Or-Province-Name'
p445
I1124
sS'ShadowMin'
p446
I1224
sS'ms-DS-Replication-Notify-First-DSA-Delay'
p447
I558
sS'MS-SQL-ServiceAccount'
p448
I694
sS'Domain-Component'
p449
I208
sS'Lost-And-Found'
p450
I1631
sS'Print-MAC-Address'
p451
I982
sS'6ff880d6-11e7-4ed1-a20f-aac45da48650'
p452
I3839
sS'ad3c7909-b154-4c16-8bf7-2c3a7870bb3d'
p453
I3629
sS'UnixUserPassword'
p454
I1217
sS'ms-Kds-KDF-Param'
p455
I1388
sS'_kerberos._udp\\nDEL:705f581c-0ce5-4a63-b0a4-f64efc30b163'
p456
I4041
sS'ms-DS-Cloud-Anchor'
p457
I1458
sS'Domain Users'
p458
I3978
sS'msSFU-30-Crypt-Method'
p459
I1268
sS'Valid-Accesses'
p460
I1199
sS'Prior-Value'
p461
I1008
sS'Class-Registration'
p462
I1515
sS'ms-Exch-LabeledURI'
p463
I600
sS'ccfae63a-7fb5-454c-83ab-0e8e1214974e'
p464
I3628
sS'msNPAllowDialin'
p465
I840
sS'Address-Template'
p466
I1496
sS'FolderUsage_MS'
p467
I2090
sS'Manager'
p468
I383
sS'6bcd5682-8314-11d6-977b-00c04f613221'
p469
I3862
sS'meetingBandwidth'
p470
I394
sS'meetingAdvertiseScope'
p471
I392
sS'Non-Security-Member-BL'
p472
I878
sS'NisMapName'
p473
I1243
sS'Garbage-Coll-Period'
p474
I279
sS'61b34cb0-55ee-4be9-b595-97810b92b017'
p475
I3881
sS'WWW-Page-Other'
p476
I1213
sS'documentTitle'
p477
I205
sS'7ffef925-405b-440a-8d58-35e8cd6e98c3'
p478
I3845
sS'ms-DS-Group-Managed-Service-Account'
p479
I1980
sS'Create-Time-Stamp'
p480
I141
sS'MS-SQL-OLAPServer'
p481
I1705
sS'Birth-Location'
p482
I99
sS'Central Access Policies'
p483
I2093
sS'Shell-Property-Pages'
p484
I1110
sS'Server Operators'
p485
I3982
sS'Is-Ephemeral'
p486
I335
sS'7771d7dd-2231-4470-aa74-84a6f56fc3b6'
p487
I3724
sS'ms-DS-Revealed-DSAs'
p488
I582
sS'Product-Code'
p489
I1015
sS'Service'
p490
I3955
sS'Other-Mailbox'
p491
I912
sS'Netboot-GUID'
p492
I859
sS'ms-DNS-Server-Settings'
p493
I1966
sS'ms-DS-Assigned-AuthN-Policy-Silo'
p494
I1470
sS'Application-Site-Settings'
p495
I1504
sS'Options-Location'
p496
I905
sS'ms-WMI-StringSetParam'
p497
I1745
sS'_kerberos._tcp.dc\\nDEL:9bd7cb03-ccd5-49a4-a913-bc2a4bc3d554'
p498
I4035
sS'File-Link-Tracking'
p499
I1574
sS'Site-GUID'
p500
I1116
sS'ms-DS-Issuer-Public-Certificates'
p501
I1455
sS'8ca38317-13a4-4bd4-806f-ebed6acb5d0c'
p502
I3850
sS'ms-DS-Az-Last-Imported-Biz-Rule-Path'
p503
I451
sS'Compliancy_MS'
p504
I2076
sS'ms-DS-Repl-Attribute-Meta-Data'
p505
I555
sS'92e73422-c68b-46c9-b0d5-b55f9c741410'
p506
I3714
sS'Domain Admins'
p507
I3977
sS'ms-DS-Required-Domain-Behavior-Version'
p508
I510
sS'alice'
p509
I4130
sS'msRASSavedFramedRoute'
p510
I850
sS'Content-Indexing-Allowed'
p511
I134
sS'ms-DS-Cached-Membership-Time-Stamp'
p512
I465
sS'NTDS Settings'
p513
I2013
sS'friendlyCountry'
p514
I1580
sS'ms-WMI-IntSetParam'
p515
I1723
sS'associatedDomain'
p516
I84
sS'ms-DFSR-RootPath'
p517
I606
sS'613bd063-e8e9-4a62-8f4c-cda566f7eb6f'
p518
I3683
sS'Phone-Fax-Other'
p519
I931
sS'dhcp-Obj-Name'
p520
I173
sS'ms-WMI-IntRangeParam'
p521
I1721
sS'WinsockServices'
p522
I3756
sS'COM-CLSID'
p523
I124
sS'Class-Display-Name'
p524
I121
sS'ms-TS-Home-Directory'
p525
I1270
sS'ms-DS-Quota-Container'
p526
I1663
sS'ms-WMI-PolicyType'
p527
I1731
sS'Proxy-Addresses'
p528
I1018
sS'Cross-Ref-Container'
p529
I1540
sS'MSMQ-Queue-Type'
p530
I817
sS'RID Set'
p531
I4000
sS'MSMQ-Site-Name'
p532
I834
sS'PKI-Expiration-Period'
p533
I950
sS'Authority-Revocation-List'
p534
I95
sS'_ldap._tcp.Default-First-Site-Name._sites'
p535
I4099
sS'Site-Link-List'
p536
I1117
sS'ms-Kds-KDF-AlgorithmID'
p537
I1387
sS'Change-Schema-Master'
p538
I2133
sS'ShadowExpire'
p539
I1228
sS'ms-WMI-TargetClass'
p540
I770
sS'Operator-Count'
p541
I902
sS'Phone-Ip-Other'
p542
I934
sS'ActiveDirectoryRodcUpdate'
p543
I3749
sS'ms-DS-Password-History-Length'
p544
I500
sS'RpcServices'
p545
I3757
sS'msSFU-30-Posix-Member'
p546
I1263
sS'Package-Flags'
p547
I916
sS'MS-SQL-SQLDatabase'
p548
I1711
sS'meetingRecurrence'
p549
I411
sS'USN-Changed'
p550
I1193
sS'Address-Book-Roots2'
p551
I1942
sS'BootableDevice'
p552
I1917
sS'Unicode-Pwd'
p553
I1174
sS'Refresh-Group-Cache'
p554
I2163
sS'Query-Filter'
p555
I1027
sS'PosixAccount'
p556
I1893
sS'MSMQ-Site-Gates-Mig'
p557
I832
sS'Display-Template'
p558
I1550
sS'ms-WMI-int8Max'
p559
I753
sS'Locality'
p560
I1629
sS'MS-SQL-Contact'
p561
I690
sS'ms-TS-Endpoint-Data'
p562
I1284
sS'ms-DNS-NSEC3-OptOut'
p563
I1355
sS'eda27b47-e610-11d6-9793-00c04f613221'
p564
I3656
sS'Global-Address-List2'
p565
I1943
sS'ms-DS-Is-Used-As-Resource-Security-Attribute'
p566
I1329
sS'MS-SQL-GPSHeight'
p567
I712
sS'DS-Clone-Domain-Controller'
p568
I2187
sS'PKI-Critical-Extensions'
p569
I946
sS'System-Must-Contain'
p570
I1143
sS'Device'
p571
I1542
sS'3fb79c05-8ea1-438c-8c7a-81f213aa61c2'
p572
I3732
sS'ms-DS-Assigned-AuthN-Policy-Silo-BL'
p573
I1471
sS'Generation-Qualifier'
p574
I281
sS'groupOfUniqueNames'
p575
I1588
sS'Parent-GUID'
p576
I921
sS'rpc-Ns-Interface-ID'
p577
I1071
sS'$ROOT_OBJECT$'
p578
I2
sS'099f1587-af70-49c6-ab6c-7b3e82be0fe2'
p579
I3641
sS'ms-PKI-RA-Application-Policies'
p580
I674
sS'ms-DS-KrbTgt-Link'
p581
I576
sS'ms-SPP-Config-License'
p582
I1346
sS'Enabled-Connection'
p583
I232
sS'Service-Connection-Point'
p584
I1863
sS'When-Changed'
p585
I1209
sS'ms-DS-Az-Script-Engine-Cache-Max'
p586
I457
sS'LostAndFound'
p587
I2018
sS'09a49cb3-6c54-4b83-ab20-8370838ba149'
p588
I3700
sS'_gc._tcp.Default-First-Site-Name._sites\\nDEL:f26e9591-09f0-4603-95a0-2add687154d4'
p589
I4040
sS'Change-Rid-Master'
p590
I2134
sS'94f238bb-831c-11d6-977b-00c04f613221'
p591
I3650
sS'Machine-Wide-Policy'
p592
I380
sS'_kerberos._tcp.Default-First-Site-Name._sites'
p593
I4094
sS'Guests'
p594
I3925
sS'Object-Guid'
p595
I890
sS'ebad865a-d649-416f-9922-456b53bbb5b8'
p596
I3883
sS'Quality-Of-Service'
p597
I1026
sS'_ldap._tcp.Default-First-Site-Name._sites.DomainDnsZones'
p598
I4100
sS'Service-Class-ID'
p599
I1101
sS'ms-PKI-OID-Attribute'
p600
I665
sS'meetingName'
p601
I406
sS'Destination-Indicator'
p602
I166
sS'msmq-Open-Connector'
p603
I2150
sS'436a1a4b-f41a-46e6-ac86-427720ef29f3'
p604
I3632
sS'RID-Set-References'
p605
I1060
sS'Description'
p606
I164
sS'26d9c511-e61a-11d6-9793-00c04f613221'
p607
I3661
sS'MSMQ-Services'
p608
I824
sS'Name-Service-Flags'
p609
I852
sS'Print Operators'
p610
I3926
sS'PosixGroup'
p611
I1897
sS'netboot-New-Machine-OU'
p612
I869
sS'S-1-5-9'
p613
I3988
sS'MSMQ-Enterprise-Settings'
p614
I1759
sS'PKI-Max-Issuing-Depth'
p615
I953
sS'Cross-Certificate-Pair'
p616
I148
sS'ms-FVE-RecoveryGuid'
p617
I642
sS'Service-Instance'
p618
I1865
sS'ms-DS-Az-Class-ID'
p619
I448
sS'SChannel Authentication'
p620
I3970
sS'ms-COM-ObjectId'
p621
I428
sS'rpc-Ns-Profile-Entry'
p622
I1074
sS'Resource Property Lists'
p623
I2091
sS'ms-DS-Site-Affinity'
p624
I566
sS'MS-SQL-Publisher'
p625
I727
sS'User-Principal-Name'
p626
I1188
sS'ms-DS-GeoCoordinates-Latitude'
p627
I1407
sS'Short-Server-Name'
p628
I1111
sS'ms-DFS-Namespace-Anchor'
p629
I1939
sS'ms-RADIUS-FramedInterfaceId'
p630
I682
sS'Last-Logon'
p631
I349
sS'93efec15-4dd9-4850-bc86-a1f2c8e2ebb9'
p632
I3735
sS'System-Poss-Superiors'
p633
I1145
sS'49c140db-2de3-44c2-a99a-bab2e6d2ba81'
p634
I3741
sS'Title'
p635
I1156
sS'ms-DS-Is-Partial-Replica-For'
p636
I586
sS'ms-DS-Quota-Trustee'
p637
I543
sS'COM-InterfaceID'
p638
I125
sS'Recalculate-Hierarchy'
p639
I2136
sS'DNS-Tombstoned'
p640
I200
sS'Validated-DNS-Host-Name'
p641
I2160
sS'ms-COM-UserLink'
p642
I431
sS'231fb90b-c92a-40c9-9379-bacfc313a3e3'
p643
I3889
sS'ACS-Max-No-Of-Account-Files'
p644
I30
sS'..Deleted-acme.local\\nDEL:a224a091-6a90-4b0a-9de3-40fb3b557770'
p645
I4021
sS'default-Display'
p646
I2221
sS'ms-DS-Repl-Value-Meta-Data-Ext'
p647
I1453
sS'ms-WMI-UnknownRangeParam'
p648
I1751
sS'Do-Garbage-Collection'
p649
I2135
sS'ms-WMI-stringValidValues'
p650
I769
sS'rpc-Ns-Bindings'
p651
I1067
sS'ms-DFSR-Topology'
p652
I1685
sS'ms-DS-Claims-Transformation-Policies'
p653
I1986
sS'ms-DFSR-GlobalSettings'
p654
I1677
sS'rpc-Server-Element'
p655
I1837
sS'Prefix-Map'
p656
I967
sS'dhcp-Identification'
p657
I169
sS'serviceAdministrationPoint-Display'
p658
I2207
sS'Original-Display-Table-MSDOS'
p659
I910
sS'ms-TS-Primary-Desktop-BL'
p660
I1289
sS'ms-DS-Device-Physical-IDs'
p661
I1447
sS'IPSEC-Negotiation-Policy-Type'
p662
I328
sS'ms-PKI-Enrollment-Flag'
p663
I662
sS'Treat-As-Leaf'
p664
I1161
sS'Pek-Key-Change-Interval'
p665
I924
sS'0fc5a978-0059-4b0a-9dc2-9896e8e389a1'
p666
I3685
sS'Machine-Architecture'
p667
I377
sS'ms-DS-Az-Operation'
p668
I1649
sS'MS-SQL-Location'
p669
I691
sS'ms-DS-User-AuthN-Policy-BL'
p670
I1475
sS'MS-SQL-GPSLongitude'
p671
I711
sS'3fe80fbf-bf39-4773-b5bd-3e5767a30d2d'
p672
I3646
sS'ms-DS-Az-Generic-Data'
p673
I461
sS'Company_MS'
p674
I2089
sS'ms-DS-Az-Admin-Manager'
p675
I1645
sS'MSMQ-Foreign'
p676
I794
sS'Help-Data16'
p677
I299
sS'Non-Security-Member'
p678
I877
sS'Seq-Notification'
p679
I1093
sS'msRADIUSCallbackNumber'
p680
I844
sS'Categories'
p681
I116
sS'Profile-Path'
p682
I1016
sS'ms-ieee-80211-Data'
p683
I644
sS'ms-DS-Members-For-Az-Role'
p684
I515
sS'ms-DS-cloudExtensionAttribute8'
p685
I1424
sS'CRL-Object'
p686
I146
sS'Help-File-Name'
p687
I301
sS'ms-DS-cloudExtensionAttribute3'
p688
I1419
sS'Ipsec-Data'
p689
I320
sS'ms-DS-cloudExtensionAttribute1'
p690
I1417
sS'Print-Rate-Unit'
p691
I999
sS'ms-DS-cloudExtensionAttribute6'
p692
I1422
sS'ms-DS-cloudExtensionAttribute5'
p693
I1421
sS'ms-DS-cloudExtensionAttribute4'
p694
I1420
sS'Managed Service Accounts'
p695
I2025
sS'860c36ed-5241-4c62-a18b-cf6ff9994173'
p696
I3830
sS'Time-Vol-Change'
p697
I1155
sS'Purported-Search'
p698
I1022
sS'Reps-To'
p699
I1047
sS'ipsecNegotiationPolicy{59319BF0-5EE3-11D2-ACE8-0060B0ECCA17}'
p700
I3804
sS'RID-Previous-Allocation-Pool'
p701
I1059
sS'ms-DS-Principal-Name'
p702
I540
sS'Common-Name'
p703
I132
sS'ms-DFSR-CachePolicy'
p704
I636
sS'bob'
p705
I4129
sS'MS-SQL-SortOrder'
p706
I696
sS'ms-TPM-Owner-Information-Temp'
p707
I1349
sS'ae78240c-43b9-499e-ae65-2b6e0f0e202a'
p708
I3730
sS'Print-Min-Y-Extent'
p709
I991
sS'MS-SQL-ConnectionURL'
p710
I708
sS'Directory Service'
p711
I2048
sS'Current-Parent-CA'
p712
I151
sS'Member'
p713
I416
sS'ms-DS-Is-Member-Of-DL-Transitive'
p714
I1450
sS'Generate-RSoP-Logging'
p715
I2165
sS'ms-WMI-SourceOrganization'
p716
I767
sS'meetingOwner'
p717
I408
sS'meetingMaxParticipants'
p718
I405
sS'remoteStorageServicePoint-Display'
p719
I2239
sS'Ipsec-Owners-Reference'
p720
I330
sS'ms-TS-Secondary-Desktops'
p721
I1288
sS'Print-Language'
p722
I981
sS'Logon-Workstation'
p723
I374
sS'Home-Drive'
p724
I304
sS'DHCP-Class'
p725
I1546
sS'Default Domain Policy'
p726
I3761
sS'Package-Registration'
p727
I1796
sS'ms-DS-Enabled-Feature-BL'
p728
I474
sS'MSMQ-Queue-Quota'
p729
I816
sS'S-1-5-17'
p730
I3935
sS'DSA-Signature'
p731
I224
sS'Central Access Rules'
p732
I2094
sS'Server Configuration'
p733
I2109
sS'0b2be39a-d463-4c23-8290-32186759d3b1'
p734
I3733
sS'6bcd5679-8314-11d6-977b-00c04f613221'
p735
I3853
sS'meetingKeyword'
p736
I402
sS'ms-DS-Managed-Service-Account'
p737
I1667
sS'NT-Security-Descriptor'
p738
I883
sS'd32f499f-3026-4af0-a5bd-13fe5a331bd2'
p739
I3745
sS'dhcp-Options'
p740
I174
sS'ms-DS-ExecuteScriptPassword'
p741
I476
sS'f.root-servers.net'
p742
I4011
sS'ms-ds-Schema-Extensions'
p743
I562
sS'Moniker'
p744
I424
sS'Link-Track-Volume-Table'
p745
I1627
sS'Preferred-OU'
p746
I966
sS'ForestDnsZones\\nDEL:57f3fdb8-dd9e-4286-8b5d-b7b41bcc312e'
p747
I4086
sS'Change-Infrastructure-Master'
p748
I2154
sS'Attribute-Schema'
p749
I14
sS'ms-COM-PartitionLink'
p750
I429
sS'MSMQ-Label-Ex'
p751
I801
sS'MS-DS-MultivaluedText'
p752
I2101
sS'd668ad1f-cedd-4565-ab02-9385926ce4f5'
p753
I3669
sS'782370ce-3d38-438d-8b0c-464220a3039d'
p754
I3672
sS'Domain-Other-Parameters'
p755
I2166
sS'documentVersion'
p756
I206
sS'Required-Categories'
p757
I1048
sS'ms-Authz-Central-Access-Policy-ID'
p758
I1377
sS'Object-Category'
p759
I885
sS'ms-DS-Assigned-AuthN-Policy-BL'
p760
I1481
sS'FRS-Root-Path'
p761
I267
sS'7f77d431-dd6a-434f-ae4d-ce82928e498f'
p762
I3720
sS'RetentionStartDate_MS'
p763
I2087
sS'ms-DFSR-OnDemandExclusionDirectoryFilter'
p764
I1310
sS'Trust-Direction'
p765
I1166
sS'Given-Name'
p766
I282
sS'MSMQ-Recipient-FormatName'
p767
I819
sS'_kpasswd._tcp'
p768
I4096
sS'Group-Membership-SAM'
p769
I293
sS'ms-DFSR-ComputerReferenceBL'
p770
I631
sS'LoginShell'
p771
I1222
sS'rpc-Ns-Entry-Flags'
p772
I1069
sS'Group Key Distribution Service Server Configuration'
p773
I2110
sS'nTDSConnection-Display'
p774
I2216
sS'NTFRS-Subscriber'
p775
I1786
sS'ms-PKI-Enrollment-Servers'
p776
I663
sS'ms-DFSR-Version'
p777
I604
sS'ms-WMI-SimplePolicyTemplate'
p778
I1741
sS'jim'
p779
I4131
sS'ACS-Policy-Name'
p780
I49
sS'Control-Access-Rights'
p781
I136
sS'msRADIUSServiceType'
p782
I847
sS'IUSR'
p783
I3993
sS'DnsUpdateProxy'
p784
I4002
sS'Windows Authorization Access Group'
p785
I3986
sS'Service-Instance-Version'
p786
I1106
sS'ms-DFS-Short-Name-Link-Path-v2'
p787
I1325
sS'_ldap._tcp.Default-First-Site-Name._sites\\nDEL:04f79581-69be-461f-847d-2ae62276ec28'
p788
I4026
sS'Intellimirror-SCP'
p789
I1599
sS'UNC-Name'
p790
I1173
sS'6bcd5678-8314-11d6-977b-00c04f613221'
p791
I3852
sS'MS-TS-ExpireDate'
p792
I1293
sS'Port-Name'
p793
I958
sS'Trust-Posix-Offset'
p794
I1169
sS'Initials'
p795
I312
sS'ms-DS-Minimum-Password-Age'
p796
I496
sS'_gc._tcp\\nDEL:7e7f0e22-6a0b-4bea-9a29-2e99b75993bb'
p797
I4039
sS'a662b036-dbbe-4166-b4ba-21abea17f9cc'
p798
I3695
sS'4dfbb973-8a62-4310-a90c-776e00f83222'
p799
I3846
sS'Meetings'
p800
I3763
sS'ACS-Priority'
p801
I50
sS'IpHostNumber'
p802
I1237
sS'7cfb016c-4f87-4406-8166-bd9df943947f'
p803
I3848
sS'Upgrade-Product-Code'
p804
I1179
sS'meetingBlob'
p805
I395
sS'ms-DS-User-TGT-Lifetime'
p806
I1464
sS'ShadowLastChange'
p807
I1223
sS'Global Resource Property List'
p808
I2092
sS'Trust-Auth-Outgoing'
p809
I1165
sS'ShadowInactive'
p810
I1227
sS'Print-Status'
p811
I1005
sS'Admin-Property-Pages'
p812
I71
sS'ms-FRS-Hub-Member'
p813
I602
sS'_kpasswd._udp\\nDEL:40104811-15d6-48fe-9f4c-577d6568ebc8'
p814
I4044
sS'FRS-Replica-Set-Type'
p815
I266
sS'Implemented-Categories'
p816
I308
sS'MacAddress'
p817
I1240
sS'nTFRSReplicaSet-Display'
p818
I2214
sS'MS-SQL-Build'
p819
I693
sS'FRS-Control-Data-Creation'
p820
I251
sS'Ipsec-NFA'
p821
I1613
sS'MS-SQL-SQLRepository'
p822
I1707
sS'FRS-Root-Security'
p823
I268
sS'MS-DS-SinglevaluedChoice'
p824
I2079
sS'Top'
p825
I1884
sS'ms-DS-Service-Allowed-To-Authenticate-To'
p826
I1467
sS'Recycle Bin Feature'
p827
I2052
sS'Foreign-Identifier'
p828
I245
sS'ms-WMI-intFlags4'
p829
I748
sS'c88227bc-fcca-4b58-8d8a-cd3d64528a02'
p830
I3895
sS'ms-WMI-intFlags1'
p831
I745
sS'ms-WMI-intFlags3'
p832
I747
sS'ms-WMI-intFlags2'
p833
I746
sS'MSMQ-Migrated'
p834
I803
sS'ms-SPP-Phone-License'
p835
I1345
sS'ms-DFSR-MinDurationCacheInMin'
p836
I637
sS'QueryPoint'
p837
I1030
sS'Telephone-Number'
p838
I1146
sS'ms-WMI-Genus'
p839
I742
sS'SAM-Account-Name'
p840
I1076
sS'meetingID'
p841
I399
sS'ms-DS-NC-Repl-Cursors'
p842
I545
sS'Remote-Mail-Recipient'
p843
I1811
sS'meetingIP'
p844
I400
sS'Tombstone-Lifetime'
p845
I1157
sS'Super-Scope-Description'
p846
I1130
sS'User-Parameters'
p847
I1184
sS'Pwd-Properties'
p848
I1025
sS'Enterprise Configuration'
p849
I2043
sS'587d52e0-507e-440e-9d67-e6129f33bb68'
p850
I3718
sS'ms-net-ieee-8023-GP-PolicyGUID'
p851
I654
sS'ms-DS-Object-Reference-BL'
p852
I534
sS'netboot-Limit-Clients'
p853
I863
sS'ms-DFS-Schema-Minor-Version'
p854
I1324
sS'FRS-Version'
p855
I275
sS'Console Logon'
p856
I3996
sS'MS-SQL-InformationURL'
p857
I707
sS'userPKCS12'
p858
I1187
sS'localPolicy-Display'
p859
I2205
sS'2d6abe1b-4326-489e-920c-76d5337d2dc5'
p860
I3712
sS'ms-DS-ManagedPasswordPreviousId'
p861
I1403
sS'Creator Group'
p862
I3949
sS'ms-DS-Computer-Allowed-To-Authenticate-To'
p863
I1465
sS'ms-WMI-int8Default'
p864
I752
sS'Enabled'
p865
I231
sS'6b13dfb5-cecc-4fb8-b28d-0505cea24175'
p866
I3713
sS'ms-DS-Az-Object-Guid'
p867
I460
sS'ms-Authz-Proposed-Security-Policy'
p868
I1374
sS'Bad-Pwd-Count'
p869
I98
sS'51cba88b-99cf-4e16-bef2-c427b38d0767'
p870
I3841
sS'caa2bfad-0cca-483b-8d00-347f943292a8'
p871
I3689
sS'Creator'
p872
I145
sS'MSMQ-Privacy-Level'
p873
I812
sS'roomNumber'
p874
I1064
sS'MSMQ-Routing-Service'
p875
I820
sS'Extended-Attribute-Info'
p876
I235
sS'Allowed-Attributes-Effective'
p877
I73
sS'ms-Print-ConnectionPolicy'
p878
I1697
sS'Container'
p879
I1530
sS'COM-ProgID'
p880
I127
sS'MS-SQL-Description'
p881
I715
sS'Sites'
p882
I2009
sS'Service-Administration-Point'
p883
I1859
sS'RootDNSServers'
p884
I4004
sS'ms-DS-Claim-Is-Value-Space-Restricted'
p885
I1382
sS'ede85f96-7061-47bf-b11b-0c0d999595b5'
p886
I3716
sS'Personal-Information'
p887
I2127
sS'ms-DS-Tasks-For-Az-Role'
p888
I568
sS'ms-TS-Home-Drive'
p889
I1271
sS'Default-Object-Category'
p890
I158
sS'Supported-Application-Context'
p891
I1134
sS'USN-Last-Obj-Rem'
p892
I1197
sS'Vol-Table-Idx-GUID'
p893
I1205
sS'ms-FRS-Topology-Pref'
p894
I603
sS'ipsecNFA{7238523E-70FA-11D1-864C-14A300000000}'
p895
I3797
sS'Public-Information'
p896
I2141
sS'netboot-New-Machine-Naming-Policy'
p897
I868
sS'RAS and IAS Servers'
p898
I3981
sS'Code-Page'
p899
I122
sS'ACS-Enable-RSVP-Accounting'
p900
I24
sS'MS-SQL-Size'
p901
I721
sS'293f0798-ea5c-4455-9f5d-45f33a30703b'
p902
I3843
sS'Localization-Display-Id'
p903
I365
sS'Last-Content-Indexed'
p904
I346
sS'MSMQ-User-Sid'
p905
I838
sS'ms-DFS-Link-v2'
p906
I1937
sS'ms-DFSR-Subscriber'
p907
I1673
sS'Schema-Flags-Ex'
p908
I1080
sS'4d753a29-26ac-4d1a-bc80-311f947e4f0a'
p909
I3686
sS'Subnet-Container'
p910
I1881
sS'ACS-RSVP-Log-Files-Location'
p911
I52
sS'FRS-Staging-Path'
p912
I271
sS'Phone-ISDN-Primary'
p913
I936
sS'AuthN Policies'
p914
I2112
sS'ms-DS-Host-Service-Account'
p915
I484
sS'ms-DS-User-Allowed-To-Authenticate-To'
p916
I1462
sS'bab5f54d-06c8-48de-9b87-d78b796564e4'
p917
I3826
sS'ms-WMI-Parm4'
p918
I762
sS'ms-WMI-Parm3'
p919
I761
sS'ms-WMI-Parm2'
p920
I760
sS'ms-WMI-Parm1'
p921
I759
sS'Infrastructure'
p922
I2019
sS'0e660ea3-8a5e-4495-9ad7-ca1bd4638f9e'
p923
I3831
sS'Server-Name'
p924
I1095
sS'82112ba0-7e4c-4a44-89d9-d46c9612bf91'
p925
I3898
sS'2951353e-d102-4ea5-906c-54247eeec741'
p926
I3885
sS'ms-DS-Service-AuthN-Policy-BL'
p927
I1479
sS'ipsecNFA{59319BF3-5EE3-11D2-ACE8-0060B0ECCA17}'
p928
I3798
sS'Services'
p929
I2046
sS'Interactive'
p930
I3954
sS'Mail-Recipient'
p931
I1633
sS'ms-DFSR-MemberReference'
p932
I628
sS'ms-DS-Computer-TGT-Lifetime'
p933
I1466
sS'Inter-Site-Topology-Generator'
p934
I316
sS'dhcp-Reservations'
p935
I177
sS'ms-Exch-Configuration-Container'
p936
I1669
sS'ms-WMI-WMIGPO'
p937
I1753
sS'MS-SQL-Name'
p938
I688
sS'group-Display'
p939
I2201
sS'Auditing-Policy'
p940
I93
sS'Recalculate-Security-Inheritance'
p941
I2156
sS'System-Flags'
p942
I1141
sS'netboot-Answer-Requests'
p943
I857
sS'UAS-Compat'
p944
I1171
sS'40B'
p945
I2538
sS'ms-DS-Local-Effective-Recycle-Time'
p946
I504
sS'3c784009-1f57-4e2a-9b04-6915c9e71961'
p947
I3851
sS'msSFU-30-NSMAP-Field-Position'
p948
I1262
sS'Storage'
p949
I1877
sS'Location'
p950
I366
sS'interSiteTransportContainer-Display'
p951
I2241
sS'Bytes-Per-Minute'
p952
I106
sS'Remote-Storage-Service-Point'
p953
I1813
sS'rpc-Ns-Codeset'
p954
I1068
sS'Application-Process'
p955
I1500
sS'ms-WMI-UintRangeParam'
p956
I1747
sS'msNPCallingStationID'
p957
I842
sS'ms-DS-OIDToGroup-Link'
p958
I498
sS'Aggregate'
p959
I11
sS'Ipsec-Filter'
p960
I1607
sS'ms-DS-Cloud-IsManaged'
p961
I1457
sS'ms-DFSR-MemberReferenceBL'
p962
I630
sS'LDAP-Display-Name'
p963
I354
sS'ms-DFSR-Priority'
p964
I632
sS'MSMQ-Secured-Source'
p965
I822
sS'MS-TS-GatewayAccess'
p966
I2181
sS'Is-Deleted'
p967
I334
sS'ms-DFSR-Extension'
p968
I605
sS'Print-Max-Y-Extent'
p969
I986
sS'MS-TSLS-Property02'
p970
I1306
sS'Replica-Source'
p971
I1043
sS'ms-DNS-Maintain-Trust-Anchor'
p972
I1356
sS'DS-Replication-Get-Changes-In-Filtered-Set'
p973
I2184
sS'ms-TS-Secondary-Desktop-BL'
p974
I1290
sS'Program Data'
p975
I2022
sS'_kerberos._tcp.dc'
p976
I4074
sS'Parent-CA-Certificate-Chain'
p977
I920
sS'Tree-Name'
p978
I1162
sS'DS-UI-Default-Settings'
p979
I2197
sS'Guest'
p980
I3918
sS'Print-Keep-Printed-Jobs'
p981
I980
sS'dee21a17-4e8e-4f40-a58c-c0c009b685a7'
p982
I3644
sS'ms-DS-Non-Security-Group-Extra-Classes'
p983
I551
sS'Personal-Title'
p984
I930
sS'MS-SQL-AllowImmediateUpdatingSubscription'
p985
I729
sS'_ldap._tcp.pdc\\nDEL:a624073a-3b0c-4c5a-b181-77a9f885bdc2'
p986
I4027
sS'e0c60003-2ed7-4fd3-8659-7655a7e79397'
p987
I3706
sS'ms-DS-Password-Settings-Container'
p988
I1661
sS'Help-Data32'
p989
I300
sS'DS-Read-Partition-Secrets'
p990
I2193
sS'Server-State'
p991
I1099
sS'ms-DFSR-DirectoryFilter'
p992
I616
sS'computer-Display'
p993
I2208
sS'ms-Imaging-Hash-Algorithm'
p994
I1399
sS'ms-DNS-Is-Signed'
p995
I1353
sS'ms-PKI-Key-Recovery-Agent'
p996
I1701
sS'MSMQ-Queue-Journal-Quota'
p997
I814
sS'ipsecFilter{72385235-70FA-11D1-864C-14A300000000}'
p998
I3788
sS'Link-Track-Vol-Entry'
p999
I1625
sS'Attribute-ID'
p1000
I88
sS'ms-ieee-80211-ID'
p1001
I646
sS'netboot-Allow-New-Clients'
p1002
I855
sS'ACS-DSBM-Priority'
p1003
I21
sS'acme.local'
p1004
I4089
sS'Domain-Replica'
p1005
I214
sS'Sam-Server'
p1006
I1847
sS'd.root-servers.net'
p1007
I4009
sS'MSMQ-Version'
p1008
I839
sS'Organizational-Unit'
p1009
I1794
sS'Certificate-Revocation-List'
p1010
I119
sS'ms-DS-Phonetic-Company-Name'
p1011
I523
sS'ms-WMI-PropertyName'
p1012
I763
sS'ms-DS-Auxiliary-Classes'
p1013
I439
sS'msSFU-30-Netgroup-User-At-Domain'
p1014
I1266
sS'Domain-Administer-Server'
p1015
I2115
sS'Receive-As'
p1016
I2119
sS'ms-SPP-Installation-Id'
p1017
I1342
sS'Validated-MS-DS-Additional-DNS-Host-Name'
p1018
I2189
sS'ms-Imaging-PSP-String'
p1019
I650
sS'Country-Code'
p1020
I138
sS'dd07182c-3174-4c95-902a-d64fee285bbf'
p1021
I3639
sS'MS-DS-OrderedList'
p1022
I2071
sS'Content'
p1023
I4046
sS'ms-DS-Az-Application'
p1024
I1647
sS'documentLocation'
p1025
I203
sS'OEM-Information'
p1026
I893
sS'FRS-Replica-Set-GUID'
p1027
I265
sS'AIA'
p1028
I2061
sS'MHS-OR-Address'
p1029
I417
sS'userClass'
p1030
I1186
sS'Move-Tree-State'
p1031
I426
sS'MSMQ-Encrypt-Key'
p1032
I793
sS'Division'
p1033
I188
sS'ACS-Non-Reserved-Token-Size'
p1034
I45
sS'Per-Recip-Dialog-Display-Table'
p1035
I929
sS'msSFU-30-Net-Id'
p1036
I1921
sS'rpc-Profile-Element'
p1037
I1833
sS'FRS-Control-Inbound-Backlog'
p1038
I252
sS'Phone-Mobile-Primary'
p1039
I938
sS'Initial-Auth-Outgoing'
p1040
I311
sS'document'
p1041
I1557
sS'9bd98bb4-4047-4de5-bf4c-7bd1d0f6d21d'
p1042
I3645
sS'Object-Class-Category'
p1043
I887
sS'Lockout-Threshold'
p1044
I369
sS'msSFU-30-Posix-Member-Of'
p1045
I1264
sS'IP'
p1046
I2036
sS'a1789bfb-e0a2-4739-8cc0-e77d892d080a'
p1047
I3880
sS'ACS-Enable-ACS-Service'
p1048
I23
sS'ms-TPM-Srk-Pub-Thumbprint'
p1049
I1348
sS'Site-List'
p1050
I1118
sS'Previous-Parent-CA'
p1051
I970
sS'Terminal-Server-License-Server'
p1052
I2182
sS'MS-DS-Per-User-Trust-Quota'
p1053
I552
sS'ACS-Max-Token-Bucket-Per-Flow'
p1054
I36
sS'Country-Name'
p1055
I139
sS'Delta-Revocation-List'
p1056
I161
sS'_kerberos._tcp.Default-First-Site-Name._sites\\nDEL:5c561303-ba4f-49b0-a171-f919e23fbe6b'
p1057
I4038
sS'e1ab17ed-5efb-4691-ad2d-0424592c5755'
p1058
I3738
sS'MSMQ-Dependent-Client-Services'
p1059
I788
sS'RID-Available-Pool'
p1060
I1056
sS'NTDS-DSA-RO'
p1061
I1774
sS'ms-DS-Promotion-Settings'
p1062
I526
sS'OncRpc'
p1063
I1903
sS'COM-ClassID'
p1064
I123
sS'ACS-DSBM-Refresh'
p1065
I22
sS'DS-Replication-Get-Changes-All'
p1066
I2169
sS'ms-DS-Operations-For-Az-Task'
p1067
I537
sS'a.root-servers.net'
p1068
I4006
sS'ms-DS-Password-Complexity-Enabled'
p1069
I501
sS'MSMQ-Ds-Services'
p1070
I792
sS'meetingLocation'
p1071
I404
sS'Link-Track-OMT-Entry'
p1072
I1623
sS'nTFRSSettings-Display'
p1073
I2213
sS'Sam-Domain-Base'
p1074
I1845
sS'msSFU-30-Key-Values'
p1075
I1256
sS'ms-DNS-NSEC3-User-Salt'
p1076
I1371
sS'ms-DS-Az-Biz-Rule-Language'
p1077
I447
sS'Can-Upgrade-Script'
p1078
I112
sS'ACS-Server-List'
p1079
I56
sS'BCKUPKEY_534bda8f-aabe-404c-8323-3be856222172 Secret'
p1080
I4123
sS'MSMQ-Site-2'
p1081
I829
sS'MSMQ-Site-1'
p1082
I828
sS'IdentityDictionary'
p1083
I2055
sS'msmq-Receive-computer-Journal'
p1084
I2144
sS'MS-SQL-TCPIP'
p1085
I702
sS'ms-TS-Primary-Desktop'
p1086
I1287
sS'ms-DS-PSO-Applied'
p1087
I509
sS'S-1-5-4'
p1088
I3923
sS'ms-SPP-Issuance-License'
p1089
I1347
sS'dhcp-Type'
p1090
I182
sS'abd97102-88dd-4013-a009-0e2c2f967ff6'
p1091
I3667
sS'Is-Privilege-Holder'
p1092
I338
sS'_ldap._tcp.DomainDnsZones'
p1093
I4101
sS'Operations'
p1094
I3624
sS'ms-DS-TDO-Ingress-BL'
p1095
I1413
sS'acme'
p1096
I2007
sS'Last-Backup-Restoration-Time'
p1097
I345
sS'GP-Link'
p1098
I285
sS'ms-FVE-RecoveryInformation'
p1099
I1933
sS'IpProtocol'
p1100
I1901
sS'Master Root Keys'
p1101
I2108
sS'ms-DS-Deleted-Object-Lifetime'
p1102
I471
sS'Repl-Property-Meta-Data'
p1103
I1040
sS'ms-DS-isGC'
p1104
I489
sS'NETBIOS-Name'
p1105
I854
sS'ms-DS-Host-Service-Account-BL'
p1106
I485
sS'ms-DS-Is-Possible-Values-Present'
p1107
I488
sS'Volume-Count'
p1108
I1206
sS'DS-Core-Propagation-Data'
p1109
I219
sS'b2b7fb45-f50d-41bc-a73b-8f580f3b636a'
p1110
I3633
sS'Password Settings Container'
p1111
I3905
sS'MS-SQL-Alias'
p1112
I720
sS'FRS-Service-Command-Status'
p1113
I270
sS'Pending-Parent-CA'
p1114
I927
sS'ms-DS-Quota-Effective'
p1115
I542
sS'ms-WMI-CreationDate'
p1116
I741
sS'ms-DS-Egress-Claims-Transformation-Policy'
p1117
I1411
sS'Configuration'
p1118
I1524
sS'MS-TS-ManagingLS4'
p1119
I1304
sS'Domain Guests'
p1120
I3979
sS'MS-TS-ManagingLS3'
p1121
I1303
sS'MS-TS-ManagingLS2'
p1122
I1302
sS'_ldap._tcp.ForestDnsZones'
p1123
I4102
sS'ms-DS-Device-Registration-Service'
p1124
I1992
sS'Extension-Name'
p1125
I238
sS'ms-DS-Claim-Value-Type'
p1126
I1331
sS'Schema-Info'
p1127
I1082
sS'Organization-Name'
p1128
I906
sS'Allowed-Attributes'
p1129
I72
sS'21ae657c-6649-43c4-bbb3-7f184fdf58c1'
p1130
I3693
sS'ms-DS-Resource-Property-List'
p1131
I1956
sS'Legacy-Exchange-DN'
p1132
I356
sS'ms-DS-Password-Settings'
p1133
I1659
sS'Ipsec-Negotiation-Policy-Reference'
p1134
I327
sS'ms-DFSR-ConflictSizeInMb'
p1135
I611
sS'When-Created'
p1136
I1210
sS'ms-Kds-Version'
p1137
I1394
sS'inetOrgPerson-Display'
p1138
I2251
sS'77283e65-ce02-4dc3-8c1e-bf99b22527c2'
p1139
I3701
sS'LSA-Modified-Count'
p1140
I376
sS'MS-SQL-SPX'
p1141
I701
sS'ms-DFS-Link-Security-Descriptor-v2'
p1142
I1320
sS'NTDS-Connection'
p1143
I1771
sS'Is-Member-Of-DL'
p1144
I336
sS'Install-Ui-Level'
p1145
I313
sS'ms-WMI-ShadowObject'
p1146
I1739
sS'ms-Exch-Assistant-Name'
p1147
I598
sS'FRS-Fault-Condition'
p1148
I257
sS'Meeting'
p1149
I1635
sS'ms-TS-Endpoint-Plugin'
p1150
I1286
sS'DS-Query-Self-Quota'
p1151
I2178
sS'_ldap._tcp.Default-First-Site-Name._sites.DomainDnsZones\\nDEL:7751a906-73f1-4207-aa9d-4895d9aa6cd5'
p1152
I4085
sS'msSFU-30-Aliases'
p1153
I1255
sS'MS-SQL-UnicodeSortOrder'
p1154
I697
sS'MAPI-ID'
p1155
I384
sS'f754861c-3692-4a7b-b2c2-d0fa28ed0b0b'
p1156
I3744
sS'DS-Check-Stale-Phantoms'
p1157
I2157
sS'msMQ-Group-Display'
p1158
I2238
sS'Sites-Container'
p1159
I1875
sS'ms-DS-Computer-AuthN-Policy-BL'
p1160
I1477
sS'Builtin-Modified-Count'
p1161
I104
sS'FRS-Control-Outbound-Backlog'
p1162
I253
sS'RDN'
p1163
I1033
sS'..Deleted-_msdcs.acme.local\\nDEL:746c0aed-6b3c-4348-b1ce-fa9bc8edb334'
p1164
I4019
sS'Service-Principal-Name'
p1165
I1107
sS'ComPartitions'
p1166
I3816
sS'RRAS'
p1167
I2054
sS'msmq-Peek-Dead-Letter'
p1168
I2143
sS'Surname'
p1169
I1135
sS'FRS-DS-Poll'
p1170
I255
sS'SMTP-Mail-Address'
p1171
I1122
sS'RID-Manager'
p1172
I1819
sS'Lockout-Time'
p1173
I370
sS'Registered-Address'
p1174
I1035
sS'Address-Book-Container'
p1175
I1494
sS'_msdcs'
p1176
I4103
sS'261b5bba-3438-4d5c-a3e9-7b871e5f57f0'
p1177
I3731
sS'f814097b-3e3d-49ba-8a3a-092c25085f06'
p1178
I3677
sS'ms-DS-NC-RO-Replica-Locations'
p1179
I549
sS'ms-DFS-Properties-v2'
p1180
I1322
sS'COM-Unique-LIBID'
p1181
I130
sS'0afb7f53-96bd-404b-a659-89e65c269420'
p1182
I3702
sS'ms-Kds-DomainID'
p1183
I1395
sS'PKT-Guid'
p1184
I956
sS'Print-Rate'
p1185
I998
sS'RAS-Information'
p1186
I2152
sS'ms-PKI-Certificate-Application-Policy'
p1187
I658
sS'6bcd568a-8314-11d6-977b-00c04f613221'
p1188
I3870
sS'ms-DNS-Propagation-Time'
p1189
I1370
sS'ms-TS-Work-Directory'
p1190
I1282
sS'Super-Scopes'
p1191
I1131
sS'NTDS Site Settings'
p1192
I2040
sS'user-Display'
p1193
I2200
sS'ms-DS-Optional-Feature'
p1194
I1657
sS'Claim Types'
p1195
I2066
sS'ms-DS-Approximate-Last-Logon-Time-Stamp'
p1196
I1443
sS'msRADIUSFramedRoute'
p1197
I846
sS'ms-DNS-Secure-Delegation-Polling-Period'
p1198
I1365
sS'ms-DS-Other-Settings'
p1199
I539
sS'Country'
p1200
I1534
sS'Validated-MS-DS-Behavior-Version'
p1201
I2188
sS'Is-Recycled'
p1202
I339
sS'C04'
p1203
I3450
sS'Dns-Zone'
p1204
I1555
sS'labeledURI'
p1205
I344
sS'Must-Contain'
p1206
I851
sS'Trusted-Domain'
p1207
I1886
sS'ms-DS-Never-Reveal-Group'
p1208
I579
sS'ms-DS-Value-Type-Reference-BL'
p1209
I596
sS'ms-DS-Service-TGT-Lifetime'
p1210
I1469
sS'DS-Heuristics'
p1211
I220
sS'NTDS-Service'
p1212
I1776
sS'_ldap._tcp.DomainDnsZones\\nDEL:fc7077ec-3375-4e2b-b2fa-ddb6cc4041b7'
p1213
I4070
sS'ms-DFSR-RootFence'
p1214
I625
sS'_ldap._tcp.ForestDnsZones\\nDEL:f8f541a2-5a31-4ac3-9b8d-58edd16781f5'
p1215
I4087
sS'Ipsec-ISAKMP-Reference'
p1216
I324
sS'6bcd5681-8314-11d6-977b-00c04f613221'
p1217
I3861
sS'DS-Install-Replica'
p1218
I2153
sS'Organizational-Person'
p1219
I1790
sS'ms-DS-Retired-Repl-NC-Signatures'
p1220
I561
sS'ms-DS-Claim-Is-Single-Valued'
p1221
I1383
sS'ms-DS-App-Configuration'
p1222
I1641
sS'ms-DS-TDO-Egress-BL'
p1223
I1412
sS'ms-DS-Non-Members-BL'
p1224
I519
sS'Allowed-To-Authenticate'
p1225
I2172
sS'ipsecNegotiationPolicy{7238523B-70FA-11D1-864C-14A300000000}'
p1226
I3787
sS'ms-net-ieee-80211-GP-PolicyGUID'
p1227
I651
sS'Generate-RSoP-Planning'
p1228
I2162
sS'ACS-Cache-Timeout'
p1229
I18
sS'Icon-Path'
p1230
I307
sS'ms-RADIUS-SavedFramedInterfaceId'
p1231
I683
sS'Is-Single-Valued'
p1232
I340
sS'MSMQ-Name-Style'
p1233
I805
sS'SAM-Domain-Updates'
p1234
I1078
sS'ACS-Minimum-Policed-Size'
p1235
I41
sS'Next-Level-Store'
p1236
I875
sS'DMD-Name'
p1237
I190
sS'MSMQ-Group'
p1238
I1761
sS'FRS-Version-GUID'
p1239
I276
sS'COM-Typelib-Id'
p1240
I129
sS'Current-Location'
p1241
I150
sS'ms-DS-Enabled-Feature'
p1242
I473
sS'Object-Version'
p1243
I892
sS'c3c927a6-cc1d-47c0-966b-be8f9b63d991'
p1244
I3899
sS'rFC822LocalPart'
p1245
I1817
sS'Creator Owner'
p1246
I3948
sS'ms-DFS-Generation-GUID-v2'
p1247
I1316
sS'gc'
p1248
I4083
sS'OMT-Guid'
p1249
I896
sS'MSMQ-Custom-Recipient'
p1250
I1757
sS'ab402345-d3c3-455d-9ff7-40268a1099b6'
p1251
I3825
sS'gc\\nDEL:4e581ed6-87e0-4ec5-a289-939df2441e34'
p1252
I4034
sS'ef010a1e-bd88-48c8-a7af-2affd250d77d'
p1253
I3675
sS'Telex-Primary'
p1254
I1149
sS'f02915e2-9141-4f73-b8e7-2804662782da'
p1255
I3647
sS'Privilege-Display-Name'
p1256
I1012
sS'Dns-Record'
p1257
I197
sS'ms-DS-Ingress-Claims-Transformation-Policy'
p1258
I1410
sS'Knowledge-Information'
p1259
I343
sS'preferredLanguage'
p1260
I965
sS'MS-SQL-Version'
p1261
I713
sS'Server-Reference-BL'
p1262
I1097
sS'ms-PKI-RA-Policies'
p1263
I675
sS'ms-DS-Primary-Computer'
p1264
I1385
sS'meetingOriginator'
p1265
I407
sS'ms-Imaging-Thumbprint-Hash'
p1266
I1398
sS'_msdcs\\nDEL:3e7233af-e9db-4c5d-9a83-0f58311bf395'
p1267
I4023
sS'Vol-Table-GUID'
p1268
I1204
sS'Token-Groups'
p1269
I1050
sS'netboot-Current-Client-Count'
p1270
I858
sS'Inter-Site-Transport-Container'
p1271
I1603
sS'ms-SPP-Activation-Objects-Container'
p1272
I1958
sS'Ipsec-ID'
p1273
I323
sS'Read-only Domain Controllers'
p1274
I3992
sS'ms-DFSR-StagingPath'
p1275
I608
sS'Microsoft SPP'
p1276
I2105
sS'Preferred-Delivery-Method'
p1277
I964
sS'MSMQ-Transactional'
p1278
I837
sS'MSMQ-Computer-Type'
p1279
I783
sS'ACS-Maximum-SDU-Size'
p1280
I38
sS'MSMQ-Sign-Certificates'
p1281
I825
sS'Impact_MS'
p1282
I2083
sS'6bcd567b-8314-11d6-977b-00c04f613221'
p1283
I3855
sS'Print-Duplex-Supported'
p1284
I977
sS'Certification Authorities'
p1285
I2060
sS'Transport-DLL-Name'
p1286
I1159
sS'domainDNS-Display'
p1287
I2202
sS'ms-DS-Az-Application-Version'
p1288
I445
sS'Display-Specifier'
p1289
I1548
sS'bd3413c0-9559-469b-9f3d-51d7faabd81a'
p1290
I3676
sS'Schema-Version'
p1291
I1084
sS'msSFU-30-Domain-Info'
p1292
I1923
sS'Access Control Assistance Operators'
p1293
I3943
sS'NTLM Authentication'
p1294
I3968
sS'ms-DS-HAB-Seniority-Index'
p1295
I525
sS'Event Log Readers'
p1296
I3937
sS'ms-SPP-Activation-Object'
p1297
I1960
sS'ms-TS-Default-To-Main-Printer'
p1298
I1281
sS'ms-DFSR-RdcMinFileSizeInKb'
p1299
I623
sS'ms-DS-Drs-Farm-ID'
p1300
I1454
sS'MS-SQL-RegisteredOwner'
p1301
I689
sS'Change-Domain-Master'
p1302
I2140
sS'NisMapEntry'
p1303
I1244
sS'ms-DS-AuthN-Policy-Enforced'
p1304
I1482
sS'_ldap._tcp.dc\\nDEL:a67e5db5-6bfd-413c-8242-85f0e5dc7e40'
p1305
I4030
sS'ms-DS-Byte-Array'
p1306
I463
sS'0d491ba1-343f-4cc5-8553-79df425e6f72'
p1307
I4082
sS'msNPCalledStationID'
p1308
I841
sS'j.root-servers.net'
p1309
I4015
sS'ms-Kds-UseStartTime'
p1310
I1396
sS'meetingDescription'
p1311
I397
sS'Confidentiality_MS'
p1312
I2075
sS'NisObject'
p1313
I1913
sS'MSMQ-Sign-Key'
p1314
I827
sS'ms-RADIUS-FramedIpv6Prefix'
p1315
I684
sS'Remote Desktop Users'
p1316
I3929
sS'ms-DS-Has-Domain-NCs'
p1317
I482
sS'x500uniqueIdentifier'
p1318
I1215
sS'MS-SQL-NamedPipe'
p1319
I699
sS'IpNetmaskNumber'
p1320
I1239
sS'Index-Server-Catalog'
p1321
I1592
sS'Pre-Windows 2000 Compatible Access'
p1322
I3984
sS'MS-SQL-Language'
p1323
I714
sS'msSFU-30-NIS-Map-Config'
p1324
I1927
sS'816'
p1325
I3165
sS'0b7fb422-3609-4587-8c2e-94b10f67d1bf'
p1326
I3884
sS'Domain-Identifier'
p1327
I211
sS'MSMQ-Interval2'
p1328
I797
sS'PKI-Extended-Key-Usage'
p1329
I951
sS'Operating-System-Service-Pack'
p1330
I900
sS'Max-Renew-Age'
p1331
I388
sS'Print-Max-Copies'
p1332
I983
sS'i.root-servers.net'
p1333
I4014
sS'Create-Dialog'
p1334
I140
sS'PKI-Enrollment-Service'
p1335
I1803
sS'NTFRS-Subscriptions'
p1336
I1788
sS'FRS-Directory-Filter'
p1337
I254
sS'Previous-CA-Certificates'
p1338
I969
sS'Proxy-Generation-Enabled'
p1339
I1019
sS'ms-net-ieee-80211-GP-PolicyData'
p1340
I652
sS'MSMQ-Nt4-Stub'
p1341
I807
sS'ffa5ee3c-1405-476d-b344-7ad37d69cc25'
p1342
I3640
sS'nTFRSSubscriber-Display'
p1343
I2228
sS'X121-Address'
p1344
I1214
sS'ms-DFSR-StagingCleanupTriggerInPercent'
p1345
I1314
sS'Servers-Container'
p1346
I1857
sS'Server-Reference'
p1347
I1096
sS'ms-SPP-KMS-Ids'
p1348
I1341
sS'Other-Name'
p1349
I913
sS'Flags'
p1350
I242
sS'pKICertificateTemplate-Display'
p1351
I2247
sS'ms-DS-ManagedPasswordId'
p1352
I1402
sS'MS-SQL-LastUpdatedDate'
p1353
I706
sS'aed72870-bf16-4788-8ac7-22299c8207f1'
p1354
I3887
sS'Everyone'
p1355
I3947
sS'RRAS-Administration-Dictionary'
p1356
I1841
sS'FSMO-Role-Owner'
p1357
I278
sS'4c0672a2-437c-4944-b953-5db8f111d665'
p1358
I3663
sS'56040c71-fe93-4037-8fe9-1a4d1a283009'
p1359
I3688
sS'ms-SPP-Confirmation-Id'
p1360
I1343
sS'BCKUPKEY_PREFERRED Secret'
p1361
I4126
sS'ipsecNFA{59319C04-5EE3-11D2-ACE8-0060B0ECCA17}'
p1362
I3791
sS'ipsecNFA{594272E2-071D-11D3-AD22-0060B0ECCA17}'
p1363
I3779
sS'mSMQMigratedUser-Display'
p1364
I2234
sS'ms-DFSR-DeletedSizeInMb'
p1365
I634
sS'Script-Path'
p1366
I1086
sS'l.root-servers.net'
p1367
I4017
sS'ms-TAPI-Unique-Identifier'
p1368
I736
sS'Employee-Number'
p1369
I229
sS'FT-Dfs'
p1370
I1582
sS'ms-DS-Az-Task'
p1371
I1655
sS'_ldap._tcp'
p1372
I4098
sS'ms-WMI-intDefault'
p1373
I744
sS'ms-DS-Device-Container'
p1374
I1994
sS'netboot-Max-Clients'
p1375
I866
sS'016f23f7-077d-41fa-a356-de7cfdb01797'
p1376
I3740
sS'openpgsvc\\nDEL:8c30396c-c39d-4017-82fa-d0e754c5b5de'
p1377
I4132
sS'ms-DS-Lockout-Duration'
p1378
I506
sS'eda27b4a-e610-11d6-9793-00c04f613221'
p1379
I3659
sS'System-May-Contain'
p1380
I1142
sS'ms-DFSR-Content'
p1381
I1681
sS'ms-DS-UpdateScript'
p1382
I574
sS'mSMQSiteLink-Display'
p1383
I2235
sS'Repl-Topology-Stay-Of-Execution'
p1384
I1041
sS'USN-Source'
p1385
I1198
sS'Domain-DNS'
p1386
I1561
sS'Default Query Policy'
p1387
I2050
sS'ms-PKI-OID-User-Notice'
p1388
I668
sS'DNS-Host-Name'
p1389
I194
sS'Obj-Dist-Name'
p1390
I884
sS'134428a8-0043-48a6-bcda-63310d9ec4dd'
p1391
I3668
sS'Allowed RODC Password Replication Group'
p1392
I3990
sS'ms-DS-Failed-Interactive-Logon-Count-At-Last-Successful-Logon'
p1393
I593
sS'Remote-Server-Name'
p1394
I1036
sS'Moniker-Display-Name'
p1395
I425
sS'msSFU-30-Network-User'
p1396
I1925
sS'netboot-Answer-Only-Valid-Clients'
p1397
I856
sS'Remote-Source-Type'
p1398
I1038
sS'Inter-Site-Topology-Failover'
p1399
I315
sS'Domain Controllers'
p1400
I2016
sS'houseIdentifier'
p1401
I305
sS'Authenticated Users'
p1402
I3951
sS'Picture'
p1403
I945
sS'7dd09ca6-f0d6-43bf-b7f8-ef348f435617'
p1404
I3637
sS'ms-TAPI-Rt-Conference'
p1405
I1717
sS'Account Operators'
p1406
I3983
sS'dhcp-Obj-Description'
p1407
I172
sS'subnetContainer-Display'
p1408
I2242
sS'PKI-Overlap-Period'
p1409
I954
sS'ms-net-ieee-8023-GroupPolicy'
p1410
I1931
sS'ms-TS-Endpoint-Type'
p1411
I1285
sS'Foreign-Security-Principal'
p1412
I1578
sS'57428d75-bef7-43e1-938b-2e749f5a8d56'
p1413
I3882
sS'Service-Class-Name'
p1414
I1103
sS'ForestDnsZones'
p1415
I4063
sS'LSA-Creation-Time'
p1416
I375
sS'ms-WMI-intMax'
p1417
I749
sS'MSMQ-Routing-Services'
p1418
I821
sS'_msdcs.acme.local'
p1419
I4072
sS'CA-Certificate'
p1420
I107
sS'Shell-Context-Menu'
p1421
I1109
sS'Well-Known-Objects'
p1422
I1208
sS'Home-Directory'
p1423
I303
sS'msRASSavedFramedIPAddress'
p1424
I849
sS'ACS-Subnet'
p1425
I1492
sS'ms-DS-Members-For-Az-Role-BL'
p1426
I516
sS'Digest Authentication'
p1427
I3969
sS'Print-Queue'
p1428
I1807
sS'Licensing-Site-Settings'
p1429
I1619
sS'ms-DS-Is-Enabled'
p1430
I1444
sS'DS-UI-Settings'
p1431
I1568
sS'ms-SPP-Online-License'
p1432
I1344
sS'10338d31-2423-4dff-b4b5-ef025144b01f'
p1433
I3681
sS'Show-In-Address-Book'
p1434
I1112
sS'OM-Syntax'
p1435
I895
sS'Dns-Node'
p1436
I1553
sS'9cac1f66-2167-47ad-a472-2a13251310e4'
p1437
I3838
sS'Dialup'
p1438
I3957
sS'Performance Monitor Users'
p1439
I3931
sS'ms-DS-Applies-To-Resource-Types'
p1440
I1415
sS'ms-DS-Claim-Type-Applies-To-Class'
p1441
I1333
sS'LostAndFoundConfig'
p1442
I2028
sS'Last-Logoff'
p1443
I348
sS'_kerberos._tcp\\nDEL:b4e3dcdb-246c-4c8a-937e-93e25a57d2c3'
p1444
I4037
sS'ms-DS-AuthN-Policy-Silo'
p1445
I2002
sS'Catalogs'
p1446
I115
sS'Terminal Server User'
p1447
I3962
sS'71482d49-8870-4cb3-a438-b6fc9ec35d70'
p1448
I3886
sS'ms-DS-Az-Generate-Audits'
p1449
I450
sS'Rpc-Container'
p1450
I1825
sS'ms-Authz-Member-Rules-In-Central-Access-Policy-BL'
p1451
I1379
sS'msSFU-30-Name'
p1452
I1254
sS'RID-Allocation-Pool'
p1453
I1055
sS'ms-WMI-ScopeGuid'
p1454
I766
sS'ms-DS-Has-Full-Replica-NCs'
p1455
I578
sS'Groups-to-Ignore'
p1456
I296
sS'OMT-Indx-Guid'
p1457
I897
sS'ms-DS-Quota-Control'
p1458
I1665
sS'Contact'
p1459
I1527
sS'DNS Settings'
p1460
I4084
sS'Domain System Volume'
p1461
I4045
sS'Option-Description'
p1462
I903
sS'MS-TS-LicenseVersion4'
p1463
I1300
sS'MS-DS-Machine-Account-Quota'
p1464
I532
sS'Pwd-History-Length'
p1465
I1023
sS'MS-TS-LicenseVersion3'
p1466
I1299
sS'MS-TS-LicenseVersion2'
p1467
I1298
sS'Version-Number'
p1468
I1201
sS'ms-Kds-SecretAgreement-Param'
p1469
I1390
sS'ms-DS-cloudExtensionAttribute12'
p1470
I1428
sS'ms-DS-cloudExtensionAttribute11'
p1471
I1427
sS'ms-DS-cloudExtensionAttribute10'
p1472
I1426
sS'ms-DS-cloudExtensionAttribute17'
p1473
I1433
sS'ms-DS-cloudExtensionAttribute16'
p1474
I1432
sS'ms-DS-cloudExtensionAttribute15'
p1475
I1431
sS'ms-DS-cloudExtensionAttribute14'
p1476
I1430
sS'ProtectedHealthInformation_MS'
p1477
I2072
sS'_ldap._tcp.Default-First-Site-Name._sites.gc\\nDEL:7dd7b3dd-92c3-4e1e-955b-0c8f083dbe33'
p1478
I4033
sS'ms-DS-cloudExtensionAttribute19'
p1479
I1435
sS'ms-DS-cloudExtensionAttribute18'
p1480
I1434
sS'Text-Encoded-OR-Address'
p1481
I1153
sS'ms-DS-Reveal-OnDemand-Group'
p1482
I580
sS'MSMQ-Queue-Name-Ext'
p1483
I815
sS'Keywords'
p1484
I342
sS'Manage-Optional-Features'
p1485
I2186
sS'ms-TS-Max-Connection-Time'
p1486
I1275
sS'ms-TS-Profile-Path'
p1487
I1269
sS'ms-DS-Repl-Value-Meta-Data'
p1488
I556
sS'May-Contain'
p1489
I391
sS'6bcd568b-8314-11d6-977b-00c04f613221'
p1490
I3871
sS'buildingName'
p1491
I102
sS'ms-TS-Connect-Client-Drives'
p1492
I1279
sS'Remote-Storage-GUID'
p1493
I1039
sS'ms-WMI-Class'
p1494
I739
sS'queryPolicy-Display'
p1495
I2245
sS'Builtin'
p1496
I3920
sS'Control-Access-Right'
p1497
I1532
sS'TPM Devices'
p1498
I3914
sS'ms-DFSR-ReadOnly'
p1499
I635
sS'volume-Display'
p1500
I2206
sS'documentIdentifier'
p1501
I202
sS'Users'
p1502
I2014
sS'Other-Login-Workstations'
p1503
I911
sS'msSFU-30-Netgroup-Host-At-Domain'
p1504
I1265
sS'560cf82d-9572-48a3-9024-6f2b56f1f866'
p1505
I3666
sS'Service-DNS-Name-Type'
p1506
I1105
sS'MSMQ-Migrated-User'
p1507
I1763
sS'13d15cf0-e6c8-11d6-9793-00c04f613221'
p1508
I3877
sS'ms-DS-Az-Scope'
p1509
I1653
sS'Builtin-Creation-Time'
p1510
I103
sS'ms-DS-User-Account-Control-Computed'
p1511
I572
sS'ACS-DSBM-DeadTime'
p1512
I20
sS'Certification-Authority'
p1513
I1513
sS'ms-DFSR-DeletedPath'
p1514
I633
sS'ms-DS-Phonetic-Department'
p1515
I522
sS'MS-SQL-Status'
p1516
I705
sS'Link-Track-Object-Move-Table'
p1517
I1621
sS'ms-WMI-Name'
p1518
I757
sS'carLicense'
p1519
I114
sS'Cost'
p1520
I137
sS'Print-Max-Resolution-Supported'
p1521
I984
sS'MSMQ-Ds-Service'
p1522
I791
sS'Domain-Password'
p1523
I2121
sS'ms-WMI-ClassDefinition'
p1524
I740
sS'Print-Stapling-Supported'
p1525
I1003
sS'NT-Group-Members'
p1526
I880
sS'6ada9ff7-c9df-45c1-908e-9fef2fab008a'
p1527
I3834
sS'msSFU-30-Intra-Field-Separator'
p1528
I1248
sS'6bcd5680-8314-11d6-977b-00c04f613221'
p1529
I3860
sS'USN-Created'
p1530
I1194
sS'Reps-From'
p1531
I1046
sS'Restricted'
p1532
I3960
sS'meetingEndTime'
p1533
I398
sS'Schema Admins'
p1534
I3974
sS'Domain-Policy-Reference'
p1535
I213
sS'Netboot-Machine-File-Path'
p1536
I865
sS'Object-Sid'
p1537
I891
sS'ms-TS-Allow-Logon'
p1538
I1272
sS'WinRMRemoteWMIUsers__'
p1539
I3919
sS'Group-Priority'
p1540
I294
sS'ms-DS-cloudExtensionAttribute13'
p1541
I1429
sS'ms-DS-Supported-Encryption-Types'
p1542
I528
sS'002fb291-0d00-4b0c-8c00-fe7f50ce6f8d'
p1543
I3673
sS'ba14e1f6-7cd1-4739-804f-57d0ea74edf4'
p1544
I3721
sS'Driver-Name'
p1545
I217
sS'domainRelatedObject'
p1546
I1566
sS'System-Only'
p1547
I1144
sS'_ldap._tcp.53e2aab8-af17-438a-8e3d-89c21f49c4c8.domains\\nDEL:cb241f4f-31c5-4a6d-8c0c-c97ddf23dc2b'
p1548
I4028
sS'ms-DS-NC-Type'
p1549
I517
sS'rpc-Ns-Priority'
p1550
I1073
sS'ms-IIS-FTP-Dir'
p1551
I647
sS'ipsecNegotiationPolicy{72385233-70FA-11D1-864C-14A300000000}'
p1552
I3782
sS'PKI-Default-CSPs'
p1553
I947
sS'MS-SQL-Clustered'
p1554
I698
sS'Attribute-Security-GUID'
p1555
I89
sS'Is-Member-Of-Partial-Attribute-Set'
p1556
I337
sS'RDS Management Servers'
p1557
I3941
sS'Force-Logoff'
p1558
I244
sS'6bcd5688-8314-11d6-977b-00c04f613221'
p1559
I3868
sS'Sync-With-SID'
p1560
I1139
sS'ms-DNS-NSEC3-Iterations'
p1561
I1361
sS'AuthN Silos'
p1562
I2113
sS'4c93ad42-178a-4275-8600-16811d28f3aa'
p1563
I3894
sS'rpc-Profile'
p1564
I1831
sS'Query-Policy-BL'
p1565
I1028
sS'1a3f6b15-55f2-4752-ba27-3d38a8232c4d'
p1566
I3643
sS'IpHost'
p1567
I1905
sS'SID-History'
p1568
I1114
sS'Server'
p1569
I1855
sS'RequiredClearance_MS'
p1570
I2074
sS'ms-PKI-Private-Key-Recovery-Agent'
p1571
I1805
sS'406'
p1572
I2310
sS'meetingScope'
p1573
I412
sS'8437C3D8-7689-4200-BF38-79E4AC33DFA0'
p1574
I3847
sS'6bcd5687-8314-11d6-977b-00c04f613221'
p1575
I3867
sS'0d491ba1-343f-4cc5-8553-79df425e6f72\\nDEL:b05f4e98-8b1d-47d9-a74c-eea5a1825530'
p1576
I4029
sS'ms-DNS-RFC5011-Key-Rollovers'
p1577
I1358
sS'Site-Server'
p1578
I1121
sS'User-Account-Control'
p1579
I1181
sS'ms-DS-cloudExtensionAttribute9'
p1580
I1425
sS'Class-Store'
p1581
I1518
sS'ANR'
p1582
I77
sS'Default-Local-Policy-Object'
p1583
I157
sS'ms-Authz-Central-Access-Rules'
p1584
I1970
sS'5c82b233-75fc-41b3-ac71-c69592e6bf15'
p1585
I3844
sS'Infrastructure-Update'
p1586
I1595
sS'6bcd567d-8314-11d6-977b-00c04f613221'
p1587
I3857
sS'inetOrgPerson'
p1588
I1593
sS'ms-DS-User-Password-Expiry-Time-Computed'
p1589
I573
sS'ms-DS-cloudExtensionAttribute2'
p1590
I1418
sS'MS-SQL-OLAPCube'
p1591
I1715
sS'Trust-Auth-Incoming'
p1592
I1164
sS'ms-DS-Service-AuthN-Policy'
p1593
I1478
sS'ms-DS-cloudExtensionAttribute7'
p1594
I1423
sS'Admin-Display-Name'
p1595
I69
sS'ms-DS-Allowed-To-Delegate-To'
p1596
I438
sS'Print-Network-Address'
p1597
I992
sS'ms-DS-Assigned-AuthN-Policy'
p1598
I1480
sS'Lock-Out-Observation-Window'
p1599
I367
sS'ms-DS-NC-Repl-Inbound-Neighbors'
p1600
I546
sS'DSA'
p1601
I1570
sS'Marshalled-Interface'
p1602
I385
sS'Dns-Allow-Dynamic'
p1603
I192
sS'Template-Roots'
p1604
I1150
sS'ms-DFSR-Connection'
p1605
I1689
sS'6E157EDF-4E72-4052-A82A-EC3F91021A22'
p1606
I3989
sS'ms-DS-Has-Master-NCs'
p1607
I483
sS'ms-DS-IntId'
p1608
I487
sS'ms-DS-Service-Allowed-To-Authenticate-From'
p1609
I1468
sS'KRA'
p1610
I2063
sS'Invocation-Id'
p1611
I319
sS'ms-DFSR-ContentSetGuid'
p1612
I621
sS'4aaabc3a-c416-4b9c-a6bb-4b453ab1c1f0'
p1613
I3890
sS'Project_MS'
p1614
I2085
sS'DFSR-GlobalSettings'
p1615
I4043
sS'ms-DFSR-ReplicationGroup'
p1616
I1679
sS'Print-Spooling'
p1617
I1002
sS'User-Comment'
p1618
I1183
sS'MS-DS-Consistency-Guid'
p1619
I466
sS'Print-Notify'
p1620
I993
sS'Ipsec-Base'
p1621
I1605
sS'MSMQ-Quota'
p1622
I818
sS'ms-DS-GeoCoordinates-Altitude'
p1623
I1406
sS'AppCategories'
p1624
I3762
sS'ms-DS-Parent-Dist-Name'
p1625
I1452
sS'Default-Class-Store'
p1626
I154
sS'ms-DNS-Keymaster-Zones'
p1627
I1352
sS'ms-PKI-Template-Schema-Version'
p1628
I673
sS'281c63f0-2c9a-4cce-9256-a238c23c0db9'
p1629
I3727
sS'Enrollment Services'
p1630
I2059
sS'ms-DS-Additional-Dns-Host-Name'
p1631
I434
sS'Local-Policy-Reference'
p1632
I361
sS'mSMQQueue-Display'
p1633
I2231
sS'b83818c1-01a6-4f39-91b7-a3bb581c3ae3'
p1634
I3742
sS'ms-DS-KeyVersionNumber'
p1635
I492
sS'1b1de989-57ec-4e96-b933-8279a8119da4'
p1636
I3726
sS'4c47881a-f15a-4f6c-9f49-2742f7a11f4b'
p1637
I3728
sS'MSMQ-Site-ID'
p1638
I833
sS'Immutable_MS'
p1639
I2080
sS'Msi-Script-Name'
p1640
I778
sS'Address'
p1641
I59
sS'Is-Defunct'
p1642
I333
sS'Max-Pwd-Age'
p1643
I387
sS'netboot-Tools'
p1644
I873
sS'c7f717ef-fdbe-4b4b-8dfc-fa8b839fbcfa'
p1645
I3703
sS'msCOM-Partition-Display'
p1646
I2249
sS'MS-SQL-GPSLatitude'
p1647
I710
sS'ms-TS-Initial-Program'
p1648
I1283
sS'IpServicePort'
p1649
I1233
sS'Service-Class-Info'
p1650
I1102
sS'Terminal Server License Servers'
p1651
I3987
sS'Repl-UpToDate-Vector'
p1652
I1042
sS'ms-DS-Az-Application-Data'
p1653
I443
sS'ms-DFSR-Options'
p1654
I620
sS'Netboot-Mirror-Data-File'
p1655
I867
sS'Builtin-Domain'
p1656
I1509
sS'FRS-File-Filter'
p1657
I258
sS'Domain-ID'
p1658
I210
sS'ms-DS-isRODC'
p1659
I490
sS'msSFU-30-Domains'
p1660
I1258
sS'ipsecISAKMPPolicy{7238523D-70FA-11D1-864C-14A300000000}'
p1661
I3796
sS'Department_MS'
p1662
I2082
sS'msSFU-30-Yp-Servers'
p1663
I1259
sS'MSMQ-Sign-Certificates-Mig'
p1664
I826
sS'ms-DS-User-AuthN-Policy'
p1665
I1474
sS'MSMQ-Digests'
p1666
I789
sS'MSMQ-Label'
p1667
I800
sS'Type-Library'
p1668
I1888
sS'MS-SQL-Applications'
p1669
I725
sS'ms-TS-Max-Idle-Time'
p1670
I1276
sS'Possible-Inferiors'
p1671
I960
sS'Link-Track-Secret'
p1672
I358
sS'SPN-Mappings'
p1673
I1123
sS'ms-WMI-TargetObject'
p1674
I772
sS'Print-End-Time'
p1675
I978
sS'ms-PKI-Supersede-Templates'
p1676
I671
sS'ms-DNS-Signing-Key-Descriptors'
p1677
I1366
sS'ms-DFSR-RootSizeInMb'
p1678
I607
sS'ms-DFSR-OnDemandExclusionFileFilter'
p1679
I1309
sS'ACS-Policy'
p1680
I1488
sS'156ffa2a-e07c-46fb-a5c4-fbd84a4e5cce'
p1681
I3722
sS'USN-DSA-Last-Obj-Removed'
p1682
I1195
sS'409'
p1683
I3564
sS'Dfs-Configuration'
p1684
I1544
sS'Hyper-V Administrators'
p1685
I3942
sS'9738c400-7795-4d6e-b19d-c16cd6486166'
p1686
I3891
sS'S-1-5-11'
p1687
I3924
sS'ms-DFSR-ConflictPath'
p1688
I610
sS'94f238bc-831c-11d6-977b-00c04f613221'
p1689
I3651
sS'ms-Imaging-PostScanProcess'
p1690
I1695
sS'Physical-Location-Object'
p1691
I944
sS'ms-TS-Connect-Printer-Drives'
p1692
I1280
sS'This Organization'
p1693
I3965
sS'Print-Attributes'
p1694
I973
sS'Replicator'
p1695
I3928
sS'ms-DNS-DS-Record-Set-TTL'
p1696
I1363
sS'4444c516-f43a-4c12-9c4b-b5c064941d61'
p1697
I3631
sS'PKI-Default-Key-Spec'
p1698
I948
sS'Value Types'
p1699
I2070
sS'Governs-ID'
p1700
I284
sS'ms-DS-USN-Last-Sync-Success'
p1701
I594
sS'DS-Replication-Monitor-Topology'
p1702
I2174
sS'Inter-Site Transports'
p1703
I2035
sS'6eb8eaf9-3403-4ba5-8b4b-ce349a4680ad'
p1704
I3678
sS'Creation-Wizard'
p1705
I144
sS'WMIGPO'
p1706
I3822
sS'ms-DS-Phonetic-Last-Name'
p1707
I521
sS'Domain-Policy-Object'
p1708
I212
sS'e.root-servers.net'
p1709
I4010
sS'printQueue-Display'
p1710
I2209
sS'documentAuthor'
p1711
I201
sS'ms-PKI-Certificate-Name-Flag'
p1712
I659
sS'ms-WMI-Author'
p1713
I737
sS'foreignSecurityPrincipal-Display'
p1714
I2246
sS'Min-Pwd-Age'
p1715
I418
sS'Validated-SPN'
p1716
I2161
sS'IPSEC-Negotiation-Policy-Action'
p1717
I326
sS'DMD-Location'
p1718
I189
sS'ms-DS-Device-OS-Type'
p1719
I1445
sS'openpgsvc'
p1720
I4133
sS'From-Server'
p1721
I248
sS'ms-DS-Az-Biz-Rule'
p1722
I446
sS'rpc-Server'
p1723
I1835
sS'ms-DS-Resource-Properties'
p1724
I1950
sS'GPC-Functionality-Version'
p1725
I288
sS'Service-Class'
p1726
I1861
sS'ForestUpdates'
p1727
I3623
sS'33b7ee33-1386-47cf-baa1-b03e06473253'
p1728
I3626
sS'MSMQ-Configuration'
p1729
I1755
sS'IpNetwork'
p1730
I1907
sS'ms-DS-Lockout-Threshold'
p1731
I507
sS'Group-Attributes'
p1732
I292
sS'Policies'
p1733
I3764
sS'ms-DS-OIDToGroup-Link-BL'
p1734
I499
sS'Business-Category'
p1735
I105
sS'ms-DS-RID-Pool-Allocation-Enabled'
p1736
I1416
sS'FRS-Extensions'
p1737
I256
sS'IndexedScopes'
p1738
I309
sS'FRS-Service-Command'
p1739
I269
sS'Comment'
p1740
I131
sS'Group Policy Creator Owners'
p1741
I3980
sS'Domain'
p1742
I1560
sS'Query-Policies'
p1743
I2049
sS'dhcp-State'
p1744
I180
sS'ms-DFS-Namespace-v2'
p1745
I1941
sS'ms-WMI-ID'
p1746
I743
sS'PKI-Enrollment-Access'
p1747
I949
sS'Application-Name'
p1748
I79
sS'Inter-Site-Topology-Renew'
p1749
I317
sS'Transport-Address-Attribute'
p1750
I1158
sS'MSMQ-Journal'
p1751
I798
sS'trustedDomain-Display'
p1752
I2220
sS'Intellimirror-Group'
p1753
I1597
sS'Privilege-Holder'
p1754
I1013
sS'ms-PKI-Minimal-Key-Size'
p1755
I664
sS'DS-Replication-Manage-Topology'
p1756
I2132
sS'ms-WMI-intValidValues'
p1757
I751
sS'2b9e0609-6d75-498a-9727-c9fcc93f0e42'
p1758
I3690
sS'interSiteTransport-Display'
p1759
I2224
sS'Root-Trust'
p1760
I1065
sS'MS-SQL-Memory'
p1761
I692
sS'Membership'
p1762
I2125
sS'ms-FVE-RecoveryPassword'
p1763
I639
sS'IntellectualProperty_MS'
p1764
I2081
sS'ms-DS-Preferred-GC-Site'
p1765
I554
sS'User'
p1766
I1889
sS'ms-DS-Approx-Immed-Subordinates'
p1767
I440
sS'IIS_IUSRS'
p1768
I3934
sS'Repl-Interval'
p1769
I1045
sS'MS-DS-Consistency-Child-Count'
p1770
I467
sS'MS-SQL-CharacterSet'
p1771
I695
sS'Msi-File-List'
p1772
I776
sS'Claims Transformation Policies'
p1773
I2104
sS'ms-DFS-Target-List-v2'
p1774
I1326
sS'Next-Rid'
p1775
I876
sS'Remote Interactive Logon'
p1776
I3967
sS'ms-DS-Is-Domain-For'
p1777
I585
sS'MS-DS-MultivaluedChoice'
p1778
I2077
sS'nTDSService-Display'
p1779
I2244
sS'Remote-Source'
p1780
I1037
sS'ms-DS-Entry-Time-To-Die'
p1781
I475
sS'siteLinkBridge-Display'
p1782
I2223
sS'Privilege-Attributes'
p1783
I1011
sS'Print-Min-X-Extent'
p1784
I990
sS'Enterprise Domain Controllers'
p1785
I3959
sS'MSMQ-Settings'
p1786
I1767
sS'Group-Policy-Container'
p1787
I1590
sS'msmq-Receive'
p1788
I2146
sS'Machine-Role'
p1789
I379
sS'User-Cert'
p1790
I1182
sS'PKI-Certificate-Template'
p1791
I1801
sS'MS-SQL-Type'
p1792
I716
sS'ACS-Max-Duration-Per-Flow'
p1793
I29
sS'Phone-Mobile-Other'
p1794
I937
sS'Wbem-Path'
p1795
I1207
sS'ms-DS-Az-Script-Timeout'
p1796
I458
sS'DIT-Content-Rules'
p1797
I187
sS'ms-Authz-Member-Rules-In-Central-Access-Policy'
p1798
I1378
sS'eda27b48-e610-11d6-9793-00c04f613221'
p1799
I3657
sS'Performance Log Users'
p1800
I3932
sS'Physical-Delivery-Office-Name'
p1801
I943
sS'ms-DS-BridgeHead-Servers-Used'
p1802
I1328
sS'ms-TAPI-Ip-Address'
p1803
I734
sS'ms-DS-Az-Task-Is-Role-Definition'
p1804
I459
sS'Curr-Machine-Id'
p1805
I149
sS'ShadowMax'
p1806
I1225
sS'Winsock-Addresses'
p1807
I1211
sS'Proxy'
p1808
I3958
sS'a3dac986-80e7-4e59-a059-54cb1ab43cb9'
p1809
I3842
sS'ms-DS-Value-Type'
p1810
I1982
sS'Logon-Count'
p1811
I372
sS'IntellimirrorSCP-Display'
p1812
I2199
sS'ms-DFSR-MaxAgeInCacheInMin'
p1813
I638
sS'Version-Number-Lo'
p1814
I1203
sS'ms-DS-Member-Transitive'
p1815
I1451
sS'_ldap._tcp.53e2aab8-af17-438a-8e3d-89c21f49c4c8.domains'
p1816
I4076
sS'Policy-Replication-Flags'
p1817
I957
sS'ms-TS-Max-Disconnection-Time'
p1818
I1274
sS'DS-Bypass-Quota'
p1819
I2192
sS'_ldap._tcp.gc'
p1820
I4080
sS'mSMQSettings-Display'
p1821
I2236
sS'Add-GUID'
p1822
I2139
sS'WWW-Home-Page'
p1823
I1212
sS'Setup-Command'
p1824
I1108
sS'ms-DS-Revealed-List'
p1825
I588
sS'Residential-Person'
p1826
I1815
sS'DnsAdmins'
p1827
I4001
sS'Original-Display-Table'
p1828
I909
sS'Domain-Policy'
p1829
I1564
sS'Security-Principal'
p1830
I1853
sS'ms-DS-Tasks-For-Az-Task-BL'
p1831
I571
sS'Print-Bin-Names'
p1832
I974
sS'ms-DS-Maximum-Registration-Inactivity-Period'
p1833
I1439
sS'ms-DS-Az-Role'
p1834
I1651
sS'ms-DS-Registered-Owner'
p1835
I1441
sS'ms-DS-Phonetic-Display-Name'
p1836
I524
sS'Certificate-Templates'
p1837
I120
sS'_kerberos._udp'
p1838
I4095
sS'Cryptographic Operators'
p1839
I3936
sS'Self'
p1840
I3950
sS'dca8f425-baae-47cd-b424-e3f6c76ed08b'
p1841
I3694
sS'DS-UI-Admin-Maximum'
p1842
I221
sS'ms-DS-Resource-Property'
p1843
I1954
sS'Department'
p1844
I162
sS'Physical-Location'
p1845
I1799
sS'ms-DFSR-TombstoneExpiryInMin'
p1846
I614
sS'ms-DS-External-Key'
p1847
I477
sS'Revision'
p1848
I1053
sS'Group Key Distribution Service'
p1849
I2107
sS'ms-Authz-Effective-Security-Policy'
p1850
I1373
sS'ms-DNS-Sign-With-NSEC3'
p1851
I1354
sS'NisNetgroupTriple'
p1852
I1232
sS'sitesContainer-Display'
p1853
I2240
sS'ACS-Max-Aggregate-Peak-Rate-Per-User'
p1854
I28
sS'MS-SQL-ThirdParty'
p1855
I732
sS'Localized-Description'
p1856
I364
sS'Pending-CA-Certificates'
p1857
I926
sS'ms-DS-Optional-Feature-Flags'
p1858
I597
sS'Superior-DNS-Root'
p1859
I1132
sS'MSMQ-Interval1'
p1860
I796
sS'8ddf6913-1c7b-4c59-a5af-b9ca3b3d2c4c'
p1861
I3878
sS'Msi-Script-Path'
p1862
I779
sS'rpc-Ns-Group'
p1863
I1070
sS'C0A'
p1864
I2481
sS'Gecos'
p1865
I1220
sS'2aea2dc6-d1d3-4f0c-9994-66c1da21de0f'
p1866
I3729
sS'ms-DS-Trust-Forest-Trust-Info'
p1867
I529
sS'ms-DFSR-RdcEnabled'
p1868
I622
sS'MS-DS-All-Users-Trust-Quota'
p1869
I436
sS'_ldap._tcp.dc'
p1870
I4077
sS'Global-Address-List'
p1871
I283
sS'NT-Mixed-Domain'
p1872
I881
sS'Email-Information'
p1873
I2128
sS'9fea28ff-387f-4d57-866d-3893c50f373f'
p1874
I3671
sS'Canonical-Name'
p1875
I113
sS'_kerberos._tcp.Default-First-Site-Name._sites.dc'
p1876
I4075
sS'Package-Type'
p1877
I918
sS'msSFU-30-Mail-Aliases'
p1878
I1919
sS'ms-FVE-KeyPackage'
p1879
I641
sS'Assoc-NT-Account'
p1880
I83
sS'ms-DS-ManagedPassword'
p1881
I1401
sS'Private-Key'
p1882
I1010
sS'ms-DFSR-DefaultCompressionExclusionFilter'
p1883
I1308
sS'Post-Office-Box'
p1884
I961
sS'Sync-With-Object'
p1885
I1138
sS'ms-DS-NC-Replica-Locations'
p1886
I548
sS'Update-Password-Not-Required-Bit'
p1887
I2175
sS'MS-DS-DateTime'
p1888
I2088
sS'rpc-Ns-Transfer-Syntax'
p1889
I1075
sS'Enterprise Schema'
p1890
I2045
sS'ms-DS-Allowed-DNS-Suffixes'
p1891
I437
sS'b96ed344-545a-4172-aa0c-68118202f125'
p1892
I3893
sS'c4f17608-e611-11d6-9793-00c04f613221'
p1893
I3876
sS'Display-Name-Printable'
p1894
I186
sS'Security-Identifier'
p1895
I1091
sS'Lm-Pwd-History'
p1896
I359
sS'07e57d28-ad40-44fc-8334-8a0dc119b3f4'
p1897
I3679
sS'ms-DS-ReplicationEpoch'
p1898
I560
sS'Update-Schema-Cache'
p1899
I2155
sS'ms-DS-Top-Quota-Usage'
p1900
I531
sS'ms-DS-Claim-Shares-Possible-Values-With-BL'
p1901
I1335
sS'ms-DS-Quota-Amount'
p1902
I541
sS'RDS Remote Access Servers'
p1903
I3939
sS'Create-Wizard-Ext'
p1904
I142
sS'Remote Management Users'
p1905
I3944
sS'Cloneable Domain Controllers'
p1906
I3997
sS'IEEE802Device'
p1907
I1915
sS'ms-DS-AuthN-Policy-Silo-Enforced'
p1908
I1483
sS'ms-DS-Generation-Id'
p1909
I1384
sS'd6bd96d4-e66b-4a38-9c6b-e976ff58c56d'
p1910
I3710
sS'Terminal-Server'
p1911
I1151
sS'Instance-Type'
p1912
I314
sS'Security-Object'
p1913
I1851
sS'Generated-Connection'
p1914
I280
sS'msSFU-30-Field-Separator'
p1915
I1247
sS'Proxy-Lifetime'
p1916
I1020
sS'Applies-To'
p1917
I80
sS'ms-DS-App-Data'
p1918
I1643
sS'Last-Update-Sequence'
p1919
I352
sS'ms-DFS-Namespace-Identity-GUID-v2'
p1920
I1321
sS'Print-Separator-File'
p1921
I1000
sS'container-Display'
p1922
I2219
sS'Facsimile-Telephone-Number'
p1923
I240
sS'Web-Information'
p1924
I2129
sS'RID-Next-RID'
p1925
I1058
sS'Modified-Count-At-Last-Prom'
p1926
I422
sS'msmq-Peek'
p1927
I2147
sS'ms-COM-Partition'
p1928
I1637
sS'nTDSSiteSettings-Display'
p1929
I2226
sS'msRADIUSFramedIPAddress'
p1930
I845
sS'ipsecNFA{72385232-70FA-11D1-864C-14A300000000}'
p1931
I3777
sS'ms-WMI-UintSetParam'
p1932
I1749
sS'Certificate-AutoEnrollment'
p1933
I2190
sS'account'
p1934
I1485
sS'ce24f0f6-237e-43d6-ac04-1e918ab04aac'
p1935
I3719
sS'ms-DS-Source-Object-DN'
p1936
I575
sS'Application-Settings'
p1937
I1502
sS'Com-Connection-Point'
p1938
I1520
sS'ipsecPolicy{72385236-70FA-11D1-864C-14A300000000}'
p1939
I3789
sS'IpNetworkNumber'
p1940
I1238
sS'IntellimirrorGroup-Display'
p1941
I2198
sS'ms-DS-AuthenticatedAt-DC'
p1942
I441
sS'54afcfb9-637a-4251-9f47-4d50e7021211'
p1943
I3900
sS'ms-DS-Revealed-Users'
p1944
I577
sS'Print-Owner'
p1945
I996
sS'ms-WMI-ChangeDate'
p1946
I738
sS'Protected Users'
p1947
I3998
sS'ms-DFSR-Enabled'
p1948
I612
sS'Extra-Columns'
p1949
I239
sS'ms-DS-Operations-For-Az-Task-BL'
p1950
I538
sS'Schema'
p1951
I2030
sS'MSMQ-Site-Foreign'
p1952
I830
sS'5e1574f6-55df-493e-a671-aaeffca6a100'
p1953
I3896
sS'PII_MS'
p1954
I2069
sS'ms-PKI-Private-Key-Flag'
p1955
I669
sS'Other-Well-Known-Objects'
p1956
I914
sS'WMIPolicy'
p1957
I3818
sS'4c022fd1-adab-4d84-a7f1-9580f03da856'
p1958
I3664
sS'Optional Features'
p1959
I2051
sS'Ipsec-Policy-Reference'
p1960
I331
sS'7868d4c8-ac41-4e05-b401-776280e8e9f1'
p1961
I3829
sS'ms-DNS-NSEC3-Current-Salt'
p1962
I1372
sS'ms-DS-NC-Repl-Outbound-Neighbors'
p1963
I547
sS'msmq-Peek-computer-Journal'
p1964
I2145
sS'unstructuredName'
p1965
I1178
sS'PersonalUse_MS'
p1966
I2084
sS'Link-ID'
p1967
I357
sS'ms-WMI-TargetType'
p1968
I774
sS'NTDS Quotas'
p1969
I2024
sS'Migrate-SID-History'
p1970
I2170
sS'Presentation-Address'
p1971
I968
sS'Activation Objects'
p1972
I2106
sS'ms-WMI-int8Min'
p1973
I754
sS'Address-Syntax'
p1974
I64
sS'_ldap._tcp.Default-First-Site-Name._sites.gc'
p1975
I4079
sS'GPC-File-Sys-Path'
p1976
I287
sS'ms-DS-AuthN-Policies'
p1977
I2000
sS'MS-DS-Per-User-Trust-Tombstones-Quota'
p1978
I553
sS'ms-WMI-NormalizedClass'
p1979
I758
sS'Print-Memory'
p1980
I989
sS'Default-Priority'
p1981
I159
sS'ms-WMI-Query'
p1982
I764
sS'c03b1f37-c240-4910-93c8-1544a452b4b5'
p1983
I3665
sS'ms-COM-DefaultPartitionLink'
p1984
I427
sS'ms-COM-UserPartitionSetLink'
p1985
I432
sS'MS-TSLS-Property01'
p1986
I1305
sS'Schedule'
p1987
I1079
sS'ms-PKI-OID-LocalizedName'
p1988
I667
sS'Attribute-Display-Names'
p1989
I87
sS'licensingSiteSettings-Display'
p1990
I2225
sS'ms-DS-cloudExtensionAttribute20'
p1991
I1436
sS'File-Ext-Priority'
p1992
I241
sS'ms-DFSR-DfsPath'
p1993
I624
sS'ms-DS-Integer'
p1994
I486
sS'ms-DS-Resultant-PSO'
p1995
I512
sS'CRL-Partitioned-Revocation-List'
p1996
I147
sS'ms-DFSR-StagingSizeInMb'
p1997
I609
sS'NTDS-DSA'
p1998
I8
sS'ms-DS-Cloud-Issuer-Public-Certificates'
p1999
I1459
sS'FRS-Member-Reference-BL'
p2000
I262
sS'SD-Rights-Effective'
p2001
I1087
sS'ms-WMI-Mof'
p2002
I756
sS'Text-Country'
p2003
I1152
sS'WIN-8HLNLTB7VBR'
p2004
I2012
sS'ms-DS-AuthN-Policy'
p2005
I2004
sS'49b2ae86-839a-4ea0-81fe-9171c1b98e83'
p2006
I3725
sS'Netboot-Initialization'
p2007
I861
sS'ms-DS-Operations-For-Az-Role'
p2008
I535
sS'ms-DS-Cached-Membership'
p2009
I464
sS'Print-Media-Supported'
p2010
I988
sS'ms-DS-Members-Of-Resource-Property-List'
p2011
I1336
sS'NisMap'
p2012
I1911
sS'ed0c8cca-80ab-4b6b-ac5a-59b1d317e11f'
p2013
I3707
sS'ms-PKI-Template-Minor-Revision'
p2014
I672
sS'DomainDnsZones\\nDEL:2fb99403-9e3a-421f-87d3-8ca13bc92886'
p2015
I4061
sS'Address-Book-Roots'
p2016
I60
sS'Flat-Name'
p2017
I243
sS'Desktop-Profile'
p2018
I165
sS'Phone-Pager-Other'
p2019
I940
sS'Network'
p2020
I3952
sS'ms-DFS-Link-Identity-GUID-v2'
p2021
I1318
sS'PolicyTemplate'
p2022
I3819
sS'Asset-Number'
p2023
I81
sS'ms-DS-Claim-Attribute-Source'
p2024
I1332
sS'ms-DFSR-Schedule'
p2025
I617
sS'ms-COM-PartitionSet'
p2026
I1639
sS'1bdf6366-c3db-4d0b-b8cb-f99ba9bce20f'
p2027
I3634
sS'ms-DS-Allowed-To-Act-On-Behalf-Of-Other-Identity'
p2028
I1400
sS'PKT'
p2029
I955
sS'Partial-Attribute-Deletion-List'
p2030
I922
sS'subnet-Display'
p2031
I2217
sS'416'
p2032
I3108
sS'ea08c04c-f474-4212-b19e-5e754f9210d4'
p2033
I3662
sS'Max-Ticket-Age'
p2034
I390
sS'ms-DS-Claim-Possible-Values'
p2035
I1330
sS'ms-DNS-NSEC3-Random-Salt-Length'
p2036
I1360
sS'MS-SQL-MultiProtocol'
p2037
I700
sS'ms-net-ieee-8023-GP-PolicyData'
p2038
I655
sS'Category-Registration'
p2039
I1511
sS'msSFU-30-Nis-Domain'
p2040
I1257
sS'MSMQ-Journal-Quota'
p2041
I799
sS'Extended-Rights'
p2042
I2114
sS'Create-Inbound-Forest-Trust'
p2043
I2168
sS'Postal-Code'
p2044
I963
sS'DomainDnsZones'
p2045
I4054
sS'ACS-Max-Peak-Bandwidth'
p2046
I32
sS'Computers'
p2047
I2015
sS'User-Change-Password'
p2048
I2116
sS'ms-WMI-MergeablePolicyTemplate'
p2049
I1725
sS'ms-WMI-Som'
p2050
I1743
sS'Domain Computers'
p2051
I3972
sS'Mastered-By'
p2052
I386
sS'VolumeTable'
p2053
I3759
sS'Sam-Domain'
p2054
I1843
sS'ms-DFSR-Subscription'
p2055
I1675
sS'Print-Pages-Per-Minute'
p2056
I997
sS'Distributed COM Users'
p2057
I3933
sS'Ipsec-Filter-Reference'
p2058
I322
sS'ms-DFSR-ReplicationGroupGuid'
p2059
I626
sS'ms-DS-Required-Forest-Behavior-Version'
p2060
I511
sS'Context-Menu'
p2061
I135
sS'ms-DS-Date-Time'
p2062
I469
sS'Reanimate-Tombstones'
p2063
I2171
sS'DN-Reference-Update'
p2064
I191
sS'ACS-Enable-RSVP-Message-Logging'
p2065
I25
sS'6bcd5686-8314-11d6-977b-00c04f613221'
p2066
I3866
sS'Friendly-Names'
p2067
I246
sS'ms-DS-Transformation-Rules'
p2068
I1409
sS'Object-Count'
p2069
I889
sS'Netboot-SIF-File'
p2070
I872
sS'MSMQ-Digests-Mig'
p2071
I790
sS'ms-DFSR-CommonStagingPath'
p2072
I1312
sS'MSMQ-Base-Priority'
p2073
I782
sS'ms-PKI-AccountCredentials'
p2074
I679
sS'ms-DS-Az-Application-Name'
p2075
I444
sS'MS-TS-Property01'
p2076
I1291
sS'MS-TS-Property02'
p2077
I1292
sS'10b3ad2a-6883-4fa7-90fc-6377cbdc1b26'
p2078
I3835
sS'ms-DS-Tasks-For-Az-Task'
p2079
I570
sS'Hide-From-AB'
p2080
I302
sS'bbbb9db0-4009-4368-8c40-6674e980d3c3'
p2081
I3743
sS'DomainUpdates'
p2082
I3823
sS'Priority'
p2083
I1009
sS'ipsecISAKMPPolicy{72385237-70FA-11D1-864C-14A300000000}'
p2084
I3790
sS'Resource Properties'
p2085
I2068
sS'Frs-Computer-Reference-BL'
p2086
I250
sS'ms-DS-Claim-Type-Property-Base'
p2087
I1946
sS'ms-DS-Device-Location'
p2088
I1440
sS'MSMQ-Prev-Site-Gates'
p2089
I811
sS'Print-Media-Ready'
p2090
I987
sS'ACS-Service-Type'
p2091
I53
sS'Range-Lower'
p2092
I1031
sS'Managed-Objects'
p2093
I382
sS'Address-Entry-Display-Table-MSDOS'
p2094
I62
sS'ms-ieee-80211-Data-Type'
p2095
I645
sS'DS-Write-Partition-Secrets'
p2096
I2194
sS'dhcp-MaxKey'
p2097
I171
sS'User-Workstations'
p2098
I1192
sS'Print-Color'
p2099
I976
sS'ACS-Max-Peak-Bandwidth-Per-Flow'
p2100
I33
sS'ms-DS-Operations-For-Az-Role-BL'
p2101
I536
sS'Incoming Forest Trust Builders'
p2102
I3985
sS'bob\\nDEL:bcf15d6f-8861-4f1f-b9b2-69e1a779839f'
p2103
I4127
sS'Machine'
p2104
I3767
sS'Secret'
p2105
I1849
sS'ms-DNS-DNSKEY-Record-Set-TTL'
p2106
I1362
sS'Application-Entity'
p2107
I1498
sS'MS-SQL-AppleTalk'
p2108
I703
sS'ACS-Max-Size-Of-RSVP-Log-File'
p2109
I35
sS'Administrator'
p2110
I3917
sS'bb8efc40-3090-4fa2-8a3f-7cd1d380e695'
p2111
I3711
sS'Claims Configuration'
p2112
I2065
sS'RRAS-Administration-Connection-Point'
p2113
I1839
sS'ms-PKI-OID-CPS'
p2114
I666
sS'CA-Usages'
p2115
I110
sS'b6a6c19a-afc9-476b-8994-61f5b14b3f05'
p2116
I3708
sS'site-Display'
p2117
I2210
sS'Sync-Membership'
p2118
I1137
sS'ms-DNS-NSEC3-Hash-Algorithm'
p2119
I1359
sS'Extended-Chars-Allowed'
p2120
I236
sS'Last-Set-Time'
p2121
I351
sS'ms-DS-Password-Reversible-Encryption-Enabled'
p2122
I502
sS'ms-net-ieee-80211-GroupPolicy'
p2123
I1929
sS'ACS-Non-Reserved-Max-SDU-Size'
p2124
I42
sS'ACS-Max-Token-Rate-Per-Flow'
p2125
I37
sS'ms-DS-NC-RO-Replica-Locations-BL'
p2126
I550
sS'msSFU-30-Key-Attributes'
p2127
I1246
sS'ms-DS-Is-User-Cachable-At-Rodc'
p2128
I587
sS'ms-DS-Claims-Transformation-Policy-Type'
p2129
I1984
sS'ipsecPolicy{72385230-70FA-11D1-864C-14A300000000}'
p2130
I3775
sS'ms-DS-Additional-Sam-Account-Name'
p2131
I435
sS'ms-DS-Maximum-Password-Age'
p2132
I495
sS'Street-Address'
p2133
I1125
sS'k.root-servers.net'
p2134
I4016
sS'Dns-Notify-Secondaries'
p2135
I195
sS'win-8hlnltb7vbr\\nDEL:7a3a796a-2502-485e-950e-05ed7efdb1af'
p2136
I4024
sS'Min-Pwd-Length'
p2137
I419
sS'ms-DFSR-CommonStagingSizeInMb'
p2138
I1313
sS'defc28cd-6cb6-4479-8bcb-aabfb41e9713'
p2139
I3709
sS'BCKUPKEY_39e46ea3-df38-4fce-8eff-efa3f94db9f8 Secret'
p2140
I4125
sS'f58300d1-b71a-4DB6-88a1-a8b9538beaca'
p2141
I3888
sS'ms-DS-Az-Minor-Version'
p2142
I454
sS'msmq-Send'
p2143
I2148
sS'94fdebc6-8eeb-4640-80de-ec52b9ca17fa'
p2144
I3642
sS'Schema-Update'
p2145
I1083
sS'b.root-servers.net'
p2146
I4007
sS'SAM-Enumerate-Entire-Domain'
p2147
I2164
sS'ms-DS-Max-Values'
p2148
I514
sS'bob\\nDEL:112f7f88-e2d5-41a8-8daa-36b405ff8d9c'
p2149
I4128
sS'PSPs'
p2150
I3906
sS'meetingProtocol'
p2151
I409
sS'ms-TAPI-Conference-Blob'
p2152
I733
sS'Certificate-Enrollment'
p2153
I2158
sS'local'
p2154
I2006
sS'ms-DFSR-Member'
p2155
I1687
sS'3051c66f-b332-4a73-9a20-2d6a7d6e6a1c'
p2156
I3874
sS'ACS-Direction'
p2157
I19
sS'Attribute-Types'
p2158
I91
sS'DS-UI-Admin-Notification'
p2159
I222
sS'Pek-List'
p2160
I925
sS'Trust-Parent'
p2161
I1167
sS'ShadowAccount'
p2162
I1895
sS'Managed-By'
p2163
I381
sS'ACS-RSVP-Account-Files-Location'
p2164
I51
sS'Parent-CA'
p2165
I919
sS'ms-PKI-RA-Signature'
p2166
I676
sS'ms-DS-Revealed-List-BL'
p2167
I589
sS'dhcp-Unique-Key'
p2168
I183
sS'FRS-Time-Last-Command'
p2169
I272
sS'Service-Binding-Information'
p2170
I1100
sS'SAM-Account-Type'
p2171
I1077
sS'6bcd568c-8314-11d6-977b-00c04f613221'
p2172
I3872
sS'ms-TPM-Tpm-Information-For-Computer'
p2173
I1350
sS'ACS-Max-Size-Of-RSVP-Account-File'
p2174
I34
sS'ms-DFSR-DisablePacketPrivacy'
p2175
I1307
sS'lostAndFound-Display'
p2176
I2250
sS'dda1d01d-4bd7-4c49-a184-46f9241b560e'
p2177
I3879
sS'ms-DS-DnsRootAlias'
p2178
I472
sS'Trust-Type'
p2179
I1170
sS'ms-Authz-Resource-Condition'
p2180
I1376
sS'Prior-Set-Time'
p2181
I1007
sS'6bcd568d-8314-11d6-977b-00c04f613221'
p2182
I3873
sS'Default-Hiding-Value'
p2183
I156
sS'Administrators'
p2184
I3921
sS'Current-Value'
p2185
I152
sS'Modify-Time-Stamp'
p2186
I423
sS'ms-DS-AuthN-Policy-Silo-Members-BL'
p2187
I1473
sS'krbtgt'
p2188
I3971
sS'Last-Logon-Timestamp'
p2189
I350
sS'MSMQ-Site-Gates'
p2190
I831
sS'ms-PKI-Site-Name'
p2191
I670
sS'ipsecNFA{594272FD-071D-11D3-AD22-0060B0ECCA17}'
p2192
I3799
sS'RDN-Att-ID'
p2193
I1034
sS'ms-TAPI-Rt-Person'
p2194
I1719
sS'ms-DS-Failed-Interactive-Logon-Count'
p2195
I592
sS'_ldap._tcp.Default-First-Site-Name._sites.ForestDnsZones'
p2196
I4122
sS'Sub-Class-Of'
p2197
I1127
sS'siteLink-Display'
p2198
I2222
sS'AdminSDHolder'
p2199
I3815
sS'DisplaySpecifiers'
p2200
I2195
sS'MSMQ-Long-Lived'
p2201
I802
sS'ms-SPP-CSVLK-Sku-Id'
p2202
I1340
sS'ms-DFSR-ComputerReference'
p2203
I629
sS'ShadowWarning'
p2204
I1226
sS'Anonymous Logon'
p2205
I3956
sS'Cert Publishers'
p2206
I3976
sS'Other Organization'
p2207
I3966
sS'uid'
p2208
I1172
sS'ms-TS-Broken-Connection-Action'
p2209
I1278
sS'$NOT_AN_OBJECT1$'
p2210
I1
sS'ACS-Non-Reserved-Tx-Size'
p2211
I47
sS'_kpasswd._tcp\\nDEL:b026a202-a33f-49a7-9133-78ca355b00bf'
p2212
I4042
sS'Category-Id'
p2213
I117
sS'Print-Share-Name'
p2214
I1001
sS'Print-Form-Name'
p2215
I979
sS'ShadowFlag'
p2216
I1229
sS'429a6334-1a00-4515-bf48-676deb55954a'
p2217
I3692
sS'SMTP'
p2218
I2038
sS'MS-SQL-AllowKnownPullSubscription'
p2219
I728
sS'ipsecFilter{7238523A-70FA-11D1-864C-14A300000000}'
p2220
I3783
sS'Apply-Group-Policy'
p2221
I2151
sS'Min-Ticket-Age'
p2222
I420
sS'ms-Exch-House-Identifier'
p2223
I599
sS'ms-DS-Claim-Types'
p2224
I1948
sS'RID-Manager-Reference'
p2225
I1057
sS'Template-Roots2'
p2226
I1944
sS'Physical Locations'
p2227
I3622
sS'CDP'
p2228
I2062
sS'f607fd87-80cf-45e2-890b-6cf97ec0e284'
p2229
I3837
sS'00232167-f3a4-43c6-b503-9acb7a81b01c'
p2230
I3704
sS'Service-DNS-Name'
p2231
I1104
sS'NTFRS-Settings'
p2232
I1784
sS'Denied RODC Password Replication Group'
p2233
I3991
sS'ms-DS-Registration-Quota'
p2234
I1438
sS'OM-Object-Class'
p2235
I894
sS'Printer-Name'
p2236
I1006
sS'MS-DS-YesNo'
p2237
I2073
sS'MS-DS-Creator-SID'
p2238
I468
sS'26d9c510-e61a-11d6-9793-00c04f613221'
p2239
I3660
sS'Server-Role'
p2240
I1098
sS'Transport-Type'
p2241
I1160
sS'ms-SPP-CSVLK-Partial-Product-Key'
p2242
I1339
sS'6bcd5684-8314-11d6-977b-00c04f613221'
p2243
I3864
sS'ACS-Minimum-Delay-Variation'
p2244
I39
sS'FRS-Level-Limit'
p2245
I260
sS'SOM'
p2246
I3820
sS'ms-DS-Members-Of-Resource-Property-List-BL'
p2247
I1337
sS'ipsecISAKMPPolicy{72385231-70FA-11D1-864C-14A300000000}'
p2248
I3776
sS'ms-DS-Is-Primary-Computer-For'
p2249
I1386
sS'DS-Replication-Synchronize'
p2250
I2131
sS'MSMQ-QM-ID'
p2251
I813
sS'dhcp-Mask'
p2252
I170
sS'Domain-Wide-Policy'
p2253
I215
sS'drink'
p2254
I216
sS'MSMQ-Site-Link'
p2255
I1769
sS'Token-Groups-No-GC-Acceptable'
p2256
I1052
sS'ms-DFSR-ReplicationGroupType'
p2257
I613
sS'IP Security'
p2258
I3774
sS'ms-DS-Settings'
p2259
I565
sS'nTDSDSA-Display'
p2260
I2215
sS'Attribute-Syntax'
p2261
I90
sS'COM-Other-Prog-Id'
p2262
I126
sS'ms-DS-Password-Settings-Precedence'
p2263
I513
sS'MS-SQL-Vines'
p2264
I704
sS'ACS-Max-No-Of-Log-Files'
p2265
I31
sS'audio'
p2266
I92
sS'Alt-Security-Identities'
p2267
I76
sS'Connection-Point'
p2268
I1526
sS'Certificate Service DCOM Access'
p2269
I3938
sS'Enterprise Read-only Domain Controllers'
p2270
I3994
sS'63c0f51a-067c-4640-8a4f-044fb33f1049'
p2271
I3635
sS'ms-Authz-Central-Access-Policies'
p2272
I1968
sS'ms-DS-Replication-Notify-Subsequent-DSA-Delay'
p2273
I559
sS'@\\nDEL:95ecf016-a210-446b-961b-79160b71212a'
p2274
I4020
sS'_ldap._tcp.Default-First-Site-Name._sites.dc\\nDEL:505764f2-d0ba-48b1-a827-70995e5edafd'
p2275
I4031
sS'unstructuredAddress'
p2276
I1177
sS'msMQ-Custom-Recipient-Display'
p2277
I2237
sS'ACS-Event-Log-Level'
p2278
I26
sS'0e848bd4-7c70-48f2-b8fc-00fbaa82e360'
p2279
I3739
sS'Company'
p2280
I133
sS'6bcd567e-8314-11d6-977b-00c04f613221'
p2281
I3858
sS'Extended-Class-Info'
p2282
I237
sS'Site-Link-Bridge'
p2283
I1873
sS'ms-PKI-DPAPIMasterKeys'
p2284
I678
sS'CA-WEB-URL'
p2285
I111
sS'ms-DFS-Comment-v2'
p2286
I1315
sS'ms-WMI-RealRangeParam'
p2287
I1735
sS'ms-DNS-DS-Record-Algorithms'
p2288
I1357
sS'MSMQ-Sites'
p2289
I836
sS'photo'
p2290
I942
sS'MSMQ-Cost'
p2291
I785
sS'DS-Set-Owner'
p2292
I2191
sS'FRS-Time-Last-Config-Change'
p2293
I273
sS'ms-DS-Default-Quota'
p2294
I470
sS'Admin-Context-Menu'
p2295
I66
sS'ms-DNS-DNSKEY-Records'
p2296
I1368
sS'nTDSSettings-Display'
p2297
I2212
sS'dhcp-Update-Time'
p2298
I184
sS'Address-Entry-Display-Table'
p2299
I61
sS'ms-DS-Is-Full-Replica-For'
p2300
I584
sS'Allowed-Child-Classes-Effective'
p2301
I75
sS'Allocate-Rids'
p2302
I2137
sS'NTFRS-Replica-Set'
p2303
I1782
sS'organizationalUnit-Display'
p2304
I2218
sS'ms-TPM-OwnerInformation'
p2305
I643
sS'NetServices'
p2306
I2053
sS'Locale-ID'
p2307
I362
sS'ms-DS-Last-Failed-Interactive-Logon-Time'
p2308
I591
sS'Public Key Services'
p2309
I2057
sS'a86fe12a-0f62-4e2a-b271-d27f601f8182'
p2310
I3832
sS'msNPSavedCallingStationID'
p2311
I843
sS'Ipsec-NFA-Reference'
p2312
I329
sS'Driver-Version'
p2313
I218
sS'MS-SQL-Database'
p2314
I718
sS'meetingRating'
p2315
I410
sS'2a858903-5696-4364-b4e5-4cac027ca7a6'
p2316
I3684
sS'ms-RRAS-Vendor-Attribute-Entry'
p2317
I681
sS'Last-Known-Parent'
p2318
I347
sS'ms-WMI-Rule'
p2319
I1737
sS'Sub-Refs'
p2320
I1128
sS'meetingContactInfo'
p2321
I396
sS'Vendor'
p2322
I1200
sS'RID-Used-Pool'
p2323
I1061
sS'SubSchema'
p2324
I12
sS'ACS-Allocable-RSVP-Bandwidth'
p2325
I17
sS'User-Logon'
p2326
I2124
sS'Discoverability_MS'
p2327
I2078
sS'ms-Kds-CreateTime'
p2328
I1397
sS'msmq-Receive-Dead-Letter'
p2329
I2142
sS'MS-SQL-CreationDate'
p2330
I722
sS'ACS-Non-Reserved-Min-Policed-Size'
p2331
I43
sS'73a9515b-511c-44d2-822b-444a33d3bd33'
p2332
I3705
sS'ms-PKI-RoamingTimeStamp'
p2333
I677
sS'NC-Name'
p2334
I853
sS'MSMQ-Site-Name-Ex'
p2335
I835
sS'ms-DS-Quota-Used'
p2336
I544
sS'MS-SQL-AllowQueuedUpdatingSubscription'
p2337
I730
sS'Organizational-Unit-Name'
p2338
I907
sS'User-Shared-Folder'
p2339
I1189
sS'host'
p2340
I306
sS'Structural-Object-Class'
p2341
I1126
sS'CA-Certificate-DN'
p2342
I108
sS'LDAP-Admin-Limits'
p2343
I353
sS'Microsoft'
p2344
I2023
sS'nTFRSMember-Display'
p2345
I2227
sS'Class-Schema'
p2346
I1486
sS'ms-DS-Tombstone-Quota-Factor'
p2347
I530
sS'ms-PKI-Cert-Template-OID'
p2348
I657
sS'Read-Only-Replication-Secret-Synchronization'
p2349
I2180
sS'ms-DS-Last-Known-RDN'
p2350
I491
sS'ms-WMI-ObjectEncoding'
p2351
I1727
sS'de10d491-909f-4fb0-9abb-4b7865c0fe80'
p2352
I3892
sS'ipsecNegotiationPolicy{7238523F-70FA-11D1-864C-14A300000000}'
p2353
I3802
sS'Subnet'
p2354
I1879
sS'msSFU-30-Master-Server-Name'
p2355
I1252
sS'Default-Group'
p2356
I155
sS'Trust-Partner'
p2357
I1168
sS'ms-DS-KrbTgt-Link-BL'
p2358
I583
sS'dhcp-Ranges'
p2359
I176
sS'Admin-Count'
p2360
I67
sS'msSFU-30-Search-Container'
p2361
I1245
sS'ms-DS-Az-Operation-ID'
p2362
I455
sS'8f86b825-c322-4101-adc4-579f12d445db'
p2363
I3670
sS'_ldap._tcp.gc\\nDEL:aee03faa-6b00-4680-b068-1cbbd5f1ed76'
p2364
I4032
sS'GPC-User-Extension-Names'
p2365
I290
sS'MS-DS-Replicates-NC-Reason'
p2366
I557
sS'Assistant'
p2367
I82
sS'Signature-Algorithms'
p2368
I1115
sS'MsmqServices'
p2369
I2056
sS'ACS-Minimum-Latency'
p2370
I40
sS'ms-TS-Remote-Control'
p2371
I1273
sS'dae441c0-366e-482e-98d9-60a99a1898cc'
p2372
I3636
sS'File Replication Service'
p2373
I3772
sS'departmentNumber'
p2374
I163
sS'MSMQ-Multicast-Address'
p2375
I804
sS'domainPolicy-Display'
p2376
I2204
sS'msDS-PasswordSettings-Display'
p2377
I2252
sS'RAS and IAS Servers Access Check'
p2378
I3771
sS'netboot-IntelliMirror-OSes'
p2379
I862
sS'File-Link-Tracking-Entry'
p2380
I1576
sS'Display-Name'
p2381
I185
sS'Additional-Information'
p2382
I57
sS'meetingStartTime'
p2383
I413
sS'MS-SQL-AllowAnonymousSubscription'
p2384
I719
sS'ms-DS-Has-Instantiated-NCs'
p2385
I481
sS'Is-Critical-System-Object'
p2386
I332
sS'dhcp-Classes'
p2387
I167
sS'ms-RADIUS-SavedFramedIpv6Route'
p2388
I687
sS'ForeignSecurityPrincipals'
p2389
I2021
sS'Trust-Attributes'
p2390
I1163
sS'dhcp-Properties'
p2391
I175
sS'ACME'
p2392
I2044
sS'Locality-Name'
p2393
I363
sS'@\\nDEL:97227cd6-8180-4a7b-a192-f5016a0dfc4c'
p2394
I4022
sS'ms-Kds-Prov-ServerConfiguration'
p2395
I1976
sS'94f238be-831c-11d6-977b-00c04f613221'
p2396
I3653
sS'9e108d96-672f-40f0-b6bd-69ee1f0b7ac4'
p2397
I3736
sS'ff4f9d27-7157-4cb0-80a9-5d6f2b14c8ff'
p2398
I3902
sS'94f238bd-831c-11d6-977b-00c04f613221'
p2399
I3652
sS'_kerberos._tcp'
p2400
I4093
sS'ms-DS-Device'
p2401
I1996
sS'RetentionPeriod_MS'
p2402
I2086
sS'Search-Guide'
p2403
I1089
sS'Volume'
p2404
I1891
sS'User-SMIME-Certificate'
p2405
I1191
sS'FRS-Primary-Member'
p2406
I264
sS'ACS-Permission-Bits'
p2407
I48
sS'ms-DS-Claim-Source-Type'
p2408
I1381
sS'Mscope-Id'
p2409
I775
sS'Default-Security-Descriptor'
p2410
I160
sS'ms-RADIUS-SavedFramedIpv6Prefix'
p2411
I685
sS'ms-DS-Last-Successful-Interactive-Logon-Time'
p2412
I590
sS'MS-TS-LicenseVersion'
p2413
I1297
sS'f7ed4553-d82b-49ef-a839-2f38a36bb069'
p2414
I3849
sS'Site-Object-BL'
p2415
I1120
sS'MS-SQL-Keywords'
p2416
I726
sS'ms-Kds-Prov-RootKey'
p2417
I1978
sS'_gc._tcp.Default-First-Site-Name._sites'
p2418
I4092
sS'GPC-WQL-Filter'
p2419
I291
sS'Token-Groups-Global-And-Universal'
p2420
I1051
sS'ms-DNS-Signing-Keys'
p2421
I1367
sS'UPN-Suffixes'
p2422
I1180
sS'26ad2ebf-f8f5-44a4-b97c-a616c8b9d09a'
p2423
I3630
sS'Site'
p2424
I1869
sS'ms-PKI-Enterprise-Oid'
p2425
I1699
sS'Authentication-Options'
p2426
I94
sS'ACS-Non-Reserved-Tx-Limit'
p2427
I46
sS'ms-DNS-Parent-Has-Secure-Delegation'
p2428
I1369
sS'ObjectMoveTable'
p2429
I3760
s.