(dp0
S'S-1-5-21-2257566251-572994186-493382752-553'
p1
I3981
sS'S-1-5-21-2257566251-572994186-493382752'
p2
I2007
sS'S-1-5-21-2257566251-572994186-493382752-1102'
p3
I4001
sS'S-1-5-21-2257566251-572994186-493382752-1103'
p4
I4002
sS'S-1-5-21-2257566251-572994186-493382752-1104'
p5
I4127
sS'S-1-5-21-2257566251-572994186-493382752-1105'
p6
I4128
sS'S-1-5-21-2257566251-572994186-493382752-1106'
p7
I4129
sS'S-1-5-21-2257566251-572994186-493382752-1107'
p8
I4130
sS'S-1-5-21-2257566251-572994186-493382752-1108'
p9
I4131
sS'S-1-5-21-2257566251-572994186-493382752-1109'
p10
I4132
sS'S-1-5-64-21'
p11
I3969
sS'S-1-3-1'
p12
I3949
sS'S-1-3-0'
p13
I3948
sS'S-1-3-4'
p14
I3995
sS'S-1-5-21-2257566251-572994186-493382752-1110'
p15
I4133
sS'S-1-5-21-2257566251-572994186-493382752-498'
p16
I3994
sS'S-1-5-17'
p17
I3935
sS'S-1-5-15'
p18
I3965
sS'S-1-5-14'
p19
I3967
sS'S-1-5-13'
p20
I3962
sS'S-1-5-12'
p21
I3960
sS'S-1-5-11'
p22
I3924
sS'S-1-5-10'
p23
I3950
sS'S-1-5-19'
p24
I3963
sS'S-1-5-18'
p25
I3961
sS'S-1-5-21-2257566251-572994186-493382752-571'
p26
I3990
sS'S-1-5-21-2257566251-572994186-493382752-572'
p27
I3991
sS'S-1-5-20'
p28
I3964
sS'S-1-5-32-578'
p29
I3942
sS'S-1-5-32-579'
p30
I3943
sS'S-1-5-32-574'
p31
I3938
sS'S-1-5-32-575'
p32
I3939
sS'S-1-5-32-576'
p33
I3940
sS'S-1-5-32-577'
p34
I3941
sS'S-1-5-1000'
p35
I3966
sS'S-1-5-32-573'
p36
I3937
sS'S-1-5-32'
p37
I3920
sS'S-1-5-32-580'
p38
I3944
sS'S--1--1-0'
p39
I1
sS'S-1-5-32-569'
p40
I3936
sS'S-1-5-32-568'
p41
I3934
sS'S-1-5-32-562'
p42
I3933
sS'S-1-5-32-561'
p43
I3987
sS'S-1-5-32-560'
p44
I3986
sS'S-1-5-21-2257566251-572994186-493382752-519'
p45
I3975
sS'S-1-5-21-2257566251-572994186-493382752-518'
p46
I3974
sS'S-1-5-21-2257566251-572994186-493382752-513'
p47
I3978
sS'S-1-5-21-2257566251-572994186-493382752-512'
p48
I3977
sS'S-1-5-21-2257566251-572994186-493382752-517'
p49
I3976
sS'S-1-5-21-2257566251-572994186-493382752-516'
p50
I3973
sS'S-1-5-21-2257566251-572994186-493382752-515'
p51
I3972
sS'S-1-5-21-2257566251-572994186-493382752-514'
p52
I3979
sS'S-1-5-32-558'
p53
I3931
sS'S-1-5-32-559'
p54
I3932
sS'S-1-5-32-552'
p55
I3928
sS'S-1-5-32-550'
p56
I3926
sS'S-1-5-32-551'
p57
I3927
sS'S-1-5-32-556'
p58
I3930
sS'S-1-2-1'
p59
I3996
sS'S-1-5-32-554'
p60
I3984
sS'S-1-5-32-555'
p61
I3929
sS'S-1-1-0'
p62
I3947
sS'S-1-5-21-2257566251-572994186-493382752-500'
p63
I3917
sS'S-1-5-21-2257566251-572994186-493382752-501'
p64
I3918
sS'S-1-5-21-2257566251-572994186-493382752-502'
p65
I3971
sS'S-1-5-32-545'
p66
I3922
sS'S-1-5-32-544'
p67
I3921
sS'S-1-5-32-546'
p68
I3925
sS'S-1-5-64-10'
p69
I3968
sS'S-1-5-32-549'
p70
I3982
sS'S-1-5-32-548'
p71
I3983
sS'S-1-5-64-14'
p72
I3970
sS'S-1-5-3'
p73
I3953
sS'S-1-5-2'
p74
I3952
sS'S-1-5-1'
p75
I3957
sS'S-1-5-7'
p76
I3956
sS'S-1-5-6'
p77
I3955
sS'S-1-5-4'
p78
I3923
sS'S-1-5-9'
p79
I3959
sS'S-1-5-8'
p80
I3958
sS'S-1-5-32-557'
p81
I3985
sS'S-1-5-21-2257566251-572994186-493382752-522'
p82
I3997
sS'S-1-5-21-2257566251-572994186-493382752-520'
p83
I3980
sS'S-1-5-21-2257566251-572994186-493382752-521'
p84
I3992
sS'S-1-5-21-2257566251-572994186-493382752-525'
p85
I3998
sS'S-1-5-21-2257566251-572994186-493382752-1001'
p86
I3946
sS'S-1-5-21-2257566251-572994186-493382752-1000'
p87
I3919
s.