(dp0
I1
S''
p1
sI2
g1
sI6
S'1486'
p2
sI8
S'1486'
p3
sI10
S'1486'
p4
sI11
S'12'
p5
sI12
S'1486'
p6
sI13
S'14'
p7
sI14
S'1486'
p8
sI15
S'14'
p9
sI16
S'14'
p10
sI17
S'14'
p11
sI18
S'14'
p12
sI19
S'14'
p13
sI20
S'14'
p14
sI21
S'14'
p15
sI22
S'14'
p16
sI23
S'14'
p17
sI24
S'14'
p18
sI25
S'14'
p19
sI26
S'14'
p20
sI27
S'14'
p21
sI28
S'14'
p22
sI29
S'14'
p23
sI30
S'14'
p24
sI31
S'14'
p25
sI32
S'14'
p26
sI33
S'14'
p27
sI34
S'14'
p28
sI35
S'14'
p29
sI36
S'14'
p30
sI37
S'14'
p31
sI38
S'14'
p32
sI39
S'14'
p33
sI40
S'14'
p34
sI41
S'14'
p35
sI42
S'14'
p36
sI43
S'14'
p37
sI44
S'14'
p38
sI45
S'14'
p39
sI46
S'14'
p40
sI47
S'14'
p41
sI48
S'14'
p42
sI49
S'14'
p43
sI50
S'14'
p44
sI51
S'14'
p45
sI52
S'14'
p46
sI53
S'14'
p47
sI54
S'14'
p48
sI55
S'14'
p49
sI56
S'14'
p50
sI57
S'14'
p51
sI58
S'14'
p52
sI59
S'14'
p53
sI60
S'14'
p54
sI61
S'14'
p55
sI62
S'14'
p56
sI63
S'14'
p57
sI64
S'14'
p58
sI65
S'14'
p59
sI66
S'14'
p60
sI67
S'14'
p61
sI68
S'14'
p62
sI69
S'14'
p63
sI70
S'14'
p64
sI71
S'14'
p65
sI72
S'14'
p66
sI73
S'14'
p67
sI74
S'14'
p68
sI75
S'14'
p69
sI76
S'14'
p70
sI77
S'14'
p71
sI78
S'14'
p72
sI79
S'14'
p73
sI80
S'14'
p74
sI81
S'14'
p75
sI82
S'14'
p76
sI83
S'14'
p77
sI84
S'14'
p78
sI85
S'14'
p79
sI86
S'14'
p80
sI87
S'14'
p81
sI88
S'14'
p82
sI89
S'14'
p83
sI90
S'14'
p84
sI91
S'14'
p85
sI92
S'14'
p86
sI93
S'14'
p87
sI94
S'14'
p88
sI95
S'14'
p89
sI96
S'14'
p90
sI97
S'14'
p91
sI98
S'14'
p92
sI99
S'14'
p93
sI100
S'14'
p94
sI101
S'14'
p95
sI102
S'14'
p96
sI103
S'14'
p97
sI104
S'14'
p98
sI105
S'14'
p99
sI106
S'14'
p100
sI107
S'14'
p101
sI108
S'14'
p102
sI109
S'14'
p103
sI110
S'14'
p104
sI111
S'14'
p105
sI112
S'14'
p106
sI113
S'14'
p107
sI114
S'14'
p108
sI115
S'14'
p109
sI116
S'14'
p110
sI117
S'14'
p111
sI118
S'14'
p112
sI119
S'14'
p113
sI120
S'14'
p114
sI121
S'14'
p115
sI122
S'14'
p116
sI123
S'14'
p117
sI124
S'14'
p118
sI125
S'14'
p119
sI126
S'14'
p120
sI127
S'14'
p121
sI128
S'14'
p122
sI129
S'14'
p123
sI130
S'14'
p124
sI131
S'14'
p125
sI132
S'14'
p126
sI133
S'14'
p127
sI134
S'14'
p128
sI135
S'14'
p129
sI136
S'14'
p130
sI137
S'14'
p131
sI138
S'14'
p132
sI139
S'14'
p133
sI140
S'14'
p134
sI141
S'14'
p135
sI142
S'14'
p136
sI143
S'14'
p137
sI144
S'14'
p138
sI145
S'14'
p139
sI146
S'14'
p140
sI147
S'14'
p141
sI148
S'14'
p142
sI149
S'14'
p143
sI150
S'14'
p144
sI151
S'14'
p145
sI152
S'14'
p146
sI153
S'14'
p147
sI154
S'14'
p148
sI155
S'14'
p149
sI156
S'14'
p150
sI157
S'14'
p151
sI158
S'14'
p152
sI159
S'14'
p153
sI160
S'14'
p154
sI161
S'14'
p155
sI162
S'14'
p156
sI163
S'14'
p157
sI164
S'14'
p158
sI165
S'14'
p159
sI166
S'14'
p160
sI167
S'14'
p161
sI168
S'14'
p162
sI169
S'14'
p163
sI170
S'14'
p164
sI171
S'14'
p165
sI172
S'14'
p166
sI173
S'14'
p167
sI174
S'14'
p168
sI175
S'14'
p169
sI176
S'14'
p170
sI177
S'14'
p171
sI178
S'14'
p172
sI179
S'14'
p173
sI180
S'14'
p174
sI181
S'14'
p175
sI182
S'14'
p176
sI183
S'14'
p177
sI184
S'14'
p178
sI185
S'14'
p179
sI186
S'14'
p180
sI187
S'14'
p181
sI188
S'14'
p182
sI189
S'14'
p183
sI190
S'14'
p184
sI191
S'14'
p185
sI192
S'14'
p186
sI193
S'14'
p187
sI194
S'14'
p188
sI195
S'14'
p189
sI196
S'14'
p190
sI197
S'14'
p191
sI198
S'14'
p192
sI199
S'14'
p193
sI200
S'14'
p194
sI201
S'14'
p195
sI202
S'14'
p196
sI203
S'14'
p197
sI204
S'14'
p198
sI205
S'14'
p199
sI206
S'14'
p200
sI207
S'14'
p201
sI208
S'14'
p202
sI209
S'14'
p203
sI210
S'14'
p204
sI211
S'14'
p205
sI212
S'14'
p206
sI213
S'14'
p207
sI214
S'14'
p208
sI215
S'14'
p209
sI216
S'14'
p210
sI217
S'14'
p211
sI218
S'14'
p212
sI219
S'14'
p213
sI220
S'14'
p214
sI221
S'14'
p215
sI222
S'14'
p216
sI223
S'14'
p217
sI224
S'14'
p218
sI225
S'14'
p219
sI226
S'14'
p220
sI227
S'14'
p221
sI228
S'14'
p222
sI229
S'14'
p223
sI230
S'14'
p224
sI231
S'14'
p225
sI232
S'14'
p226
sI233
S'14'
p227
sI234
S'14'
p228
sI235
S'14'
p229
sI236
S'14'
p230
sI237
S'14'
p231
sI238
S'14'
p232
sI239
S'14'
p233
sI240
S'14'
p234
sI241
S'14'
p235
sI242
S'14'
p236
sI243
S'14'
p237
sI244
S'14'
p238
sI245
S'14'
p239
sI246
S'14'
p240
sI247
S'14'
p241
sI248
S'14'
p242
sI249
S'14'
p243
sI250
S'14'
p244
sI251
S'14'
p245
sI252
S'14'
p246
sI253
S'14'
p247
sI254
S'14'
p248
sI255
S'14'
p249
sI256
S'14'
p250
sI257
S'14'
p251
sI258
S'14'
p252
sI259
S'14'
p253
sI260
S'14'
p254
sI261
S'14'
p255
sI262
S'14'
p256
sI263
S'14'
p257
sI264
S'14'
p258
sI265
S'14'
p259
sI266
S'14'
p260
sI267
S'14'
p261
sI268
S'14'
p262
sI269
S'14'
p263
sI270
S'14'
p264
sI271
S'14'
p265
sI272
S'14'
p266
sI273
S'14'
p267
sI274
S'14'
p268
sI275
S'14'
p269
sI276
S'14'
p270
sI277
S'14'
p271
sI278
S'14'
p272
sI279
S'14'
p273
sI280
S'14'
p274
sI281
S'14'
p275
sI282
S'14'
p276
sI283
S'14'
p277
sI284
S'14'
p278
sI285
S'14'
p279
sI286
S'14'
p280
sI287
S'14'
p281
sI288
S'14'
p282
sI289
S'14'
p283
sI290
S'14'
p284
sI291
S'14'
p285
sI292
S'14'
p286
sI293
S'14'
p287
sI294
S'14'
p288
sI295
S'14'
p289
sI296
S'14'
p290
sI297
S'14'
p291
sI298
S'14'
p292
sI299
S'14'
p293
sI300
S'14'
p294
sI301
S'14'
p295
sI302
S'14'
p296
sI303
S'14'
p297
sI304
S'14'
p298
sI305
S'14'
p299
sI306
S'14'
p300
sI307
S'14'
p301
sI308
S'14'
p302
sI309
S'14'
p303
sI310
S'14'
p304
sI311
S'14'
p305
sI312
S'14'
p306
sI313
S'14'
p307
sI314
S'14'
p308
sI315
S'14'
p309
sI316
S'14'
p310
sI317
S'14'
p311
sI318
S'14'
p312
sI319
S'14'
p313
sI320
S'14'
p314
sI321
S'14'
p315
sI322
S'14'
p316
sI323
S'14'
p317
sI324
S'14'
p318
sI325
S'14'
p319
sI326
S'14'
p320
sI327
S'14'
p321
sI328
S'14'
p322
sI329
S'14'
p323
sI330
S'14'
p324
sI331
S'14'
p325
sI332
S'14'
p326
sI333
S'14'
p327
sI334
S'14'
p328
sI335
S'14'
p329
sI336
S'14'
p330
sI337
S'14'
p331
sI338
S'14'
p332
sI339
S'14'
p333
sI340
S'14'
p334
sI341
S'14'
p335
sI342
S'14'
p336
sI343
S'14'
p337
sI344
S'14'
p338
sI345
S'14'
p339
sI346
S'14'
p340
sI347
S'14'
p341
sI348
S'14'
p342
sI349
S'14'
p343
sI350
S'14'
p344
sI351
S'14'
p345
sI352
S'14'
p346
sI353
S'14'
p347
sI354
S'14'
p348
sI355
S'14'
p349
sI356
S'14'
p350
sI357
S'14'
p351
sI358
S'14'
p352
sI359
S'14'
p353
sI360
S'14'
p354
sI361
S'14'
p355
sI362
S'14'
p356
sI363
S'14'
p357
sI364
S'14'
p358
sI365
S'14'
p359
sI366
S'14'
p360
sI367
S'14'
p361
sI368
S'14'
p362
sI369
S'14'
p363
sI370
S'14'
p364
sI371
S'14'
p365
sI372
S'14'
p366
sI373
S'14'
p367
sI374
S'14'
p368
sI375
S'14'
p369
sI376
S'14'
p370
sI377
S'14'
p371
sI378
S'14'
p372
sI379
S'14'
p373
sI380
S'14'
p374
sI381
S'14'
p375
sI382
S'14'
p376
sI383
S'14'
p377
sI384
S'14'
p378
sI385
S'14'
p379
sI386
S'14'
p380
sI387
S'14'
p381
sI388
S'14'
p382
sI389
S'14'
p383
sI390
S'14'
p384
sI391
S'14'
p385
sI392
S'14'
p386
sI393
S'14'
p387
sI394
S'14'
p388
sI395
S'14'
p389
sI396
S'14'
p390
sI397
S'14'
p391
sI398
S'14'
p392
sI399
S'14'
p393
sI400
S'14'
p394
sI401
S'14'
p395
sI402
S'14'
p396
sI403
S'14'
p397
sI404
S'14'
p398
sI405
S'14'
p399
sI406
S'14'
p400
sI407
S'14'
p401
sI408
S'14'
p402
sI409
S'14'
p403
sI410
S'14'
p404
sI411
S'14'
p405
sI412
S'14'
p406
sI413
S'14'
p407
sI414
S'14'
p408
sI415
S'14'
p409
sI416
S'14'
p410
sI417
S'14'
p411
sI418
S'14'
p412
sI419
S'14'
p413
sI420
S'14'
p414
sI421
S'14'
p415
sI422
S'14'
p416
sI423
S'14'
p417
sI424
S'14'
p418
sI425
S'14'
p419
sI426
S'14'
p420
sI427
S'14'
p421
sI428
S'14'
p422
sI429
S'14'
p423
sI430
S'14'
p424
sI431
S'14'
p425
sI432
S'14'
p426
sI433
S'14'
p427
sI434
S'14'
p428
sI435
S'14'
p429
sI436
S'14'
p430
sI437
S'14'
p431
sI438
S'14'
p432
sI439
S'14'
p433
sI440
S'14'
p434
sI441
S'14'
p435
sI442
S'14'
p436
sI443
S'14'
p437
sI444
S'14'
p438
sI445
S'14'
p439
sI446
S'14'
p440
sI447
S'14'
p441
sI448
S'14'
p442
sI449
S'14'
p443
sI450
S'14'
p444
sI451
S'14'
p445
sI452
S'14'
p446
sI453
S'14'
p447
sI454
S'14'
p448
sI455
S'14'
p449
sI456
S'14'
p450
sI457
S'14'
p451
sI458
S'14'
p452
sI459
S'14'
p453
sI460
S'14'
p454
sI461
S'14'
p455
sI462
S'14'
p456
sI463
S'14'
p457
sI464
S'14'
p458
sI465
S'14'
p459
sI466
S'14'
p460
sI467
S'14'
p461
sI468
S'14'
p462
sI469
S'14'
p463
sI470
S'14'
p464
sI471
S'14'
p465
sI472
S'14'
p466
sI473
S'14'
p467
sI474
S'14'
p468
sI475
S'14'
p469
sI476
S'14'
p470
sI477
S'14'
p471
sI478
S'14'
p472
sI479
S'14'
p473
sI480
S'14'
p474
sI481
S'14'
p475
sI482
S'14'
p476
sI483
S'14'
p477
sI484
S'14'
p478
sI485
S'14'
p479
sI486
S'14'
p480
sI487
S'14'
p481
sI488
S'14'
p482
sI489
S'14'
p483
sI490
S'14'
p484
sI491
S'14'
p485
sI492
S'14'
p486
sI493
S'14'
p487
sI494
S'14'
p488
sI495
S'14'
p489
sI496
S'14'
p490
sI497
S'14'
p491
sI498
S'14'
p492
sI499
S'14'
p493
sI500
S'14'
p494
sI501
S'14'
p495
sI502
S'14'
p496
sI503
S'14'
p497
sI504
S'14'
p498
sI505
S'14'
p499
sI506
S'14'
p500
sI507
S'14'
p501
sI508
S'14'
p502
sI509
S'14'
p503
sI510
S'14'
p504
sI511
S'14'
p505
sI512
S'14'
p506
sI513
S'14'
p507
sI514
S'14'
p508
sI515
S'14'
p509
sI516
S'14'
p510
sI517
S'14'
p511
sI518
S'14'
p512
sI519
S'14'
p513
sI520
S'14'
p514
sI521
S'14'
p515
sI522
S'14'
p516
sI523
S'14'
p517
sI524
S'14'
p518
sI525
S'14'
p519
sI526
S'14'
p520
sI527
S'14'
p521
sI528
S'14'
p522
sI529
S'14'
p523
sI530
S'14'
p524
sI531
S'14'
p525
sI532
S'14'
p526
sI533
S'14'
p527
sI534
S'14'
p528
sI535
S'14'
p529
sI536
S'14'
p530
sI537
S'14'
p531
sI538
S'14'
p532
sI539
S'14'
p533
sI540
S'14'
p534
sI541
S'14'
p535
sI542
S'14'
p536
sI543
S'14'
p537
sI544
S'14'
p538
sI545
S'14'
p539
sI546
S'14'
p540
sI547
S'14'
p541
sI548
S'14'
p542
sI549
S'14'
p543
sI550
S'14'
p544
sI551
S'14'
p545
sI552
S'14'
p546
sI553
S'14'
p547
sI554
S'14'
p548
sI555
S'14'
p549
sI556
S'14'
p550
sI557
S'14'
p551
sI558
S'14'
p552
sI559
S'14'
p553
sI560
S'14'
p554
sI561
S'14'
p555
sI562
S'14'
p556
sI563
S'14'
p557
sI564
S'14'
p558
sI565
S'14'
p559
sI566
S'14'
p560
sI567
S'14'
p561
sI568
S'14'
p562
sI569
S'14'
p563
sI570
S'14'
p564
sI571
S'14'
p565
sI572
S'14'
p566
sI573
S'14'
p567
sI574
S'14'
p568
sI575
S'14'
p569
sI576
S'14'
p570
sI577
S'14'
p571
sI578
S'14'
p572
sI579
S'14'
p573
sI580
S'14'
p574
sI581
S'14'
p575
sI582
S'14'
p576
sI583
S'14'
p577
sI584
S'14'
p578
sI585
S'14'
p579
sI586
S'14'
p580
sI587
S'14'
p581
sI588
S'14'
p582
sI589
S'14'
p583
sI590
S'14'
p584
sI591
S'14'
p585
sI592
S'14'
p586
sI593
S'14'
p587
sI594
S'14'
p588
sI595
S'14'
p589
sI596
S'14'
p590
sI597
S'14'
p591
sI598
S'14'
p592
sI599
S'14'
p593
sI600
S'14'
p594
sI601
S'14'
p595
sI602
S'14'
p596
sI603
S'14'
p597
sI604
S'14'
p598
sI605
S'14'
p599
sI606
S'14'
p600
sI607
S'14'
p601
sI608
S'14'
p602
sI609
S'14'
p603
sI610
S'14'
p604
sI611
S'14'
p605
sI612
S'14'
p606
sI613
S'14'
p607
sI614
S'14'
p608
sI615
S'14'
p609
sI616
S'14'
p610
sI617
S'14'
p611
sI618
S'14'
p612
sI619
S'14'
p613
sI620
S'14'
p614
sI621
S'14'
p615
sI622
S'14'
p616
sI623
S'14'
p617
sI624
S'14'
p618
sI625
S'14'
p619
sI626
S'14'
p620
sI627
S'14'
p621
sI628
S'14'
p622
sI629
S'14'
p623
sI630
S'14'
p624
sI631
S'14'
p625
sI632
S'14'
p626
sI633
S'14'
p627
sI634
S'14'
p628
sI635
S'14'
p629
sI636
S'14'
p630
sI637
S'14'
p631
sI638
S'14'
p632
sI639
S'14'
p633
sI640
S'14'
p634
sI641
S'14'
p635
sI642
S'14'
p636
sI643
S'14'
p637
sI644
S'14'
p638
sI645
S'14'
p639
sI646
S'14'
p640
sI647
S'14'
p641
sI648
S'14'
p642
sI649
S'14'
p643
sI650
S'14'
p644
sI651
S'14'
p645
sI652
S'14'
p646
sI653
S'14'
p647
sI654
S'14'
p648
sI655
S'14'
p649
sI656
S'14'
p650
sI657
S'14'
p651
sI658
S'14'
p652
sI659
S'14'
p653
sI660
S'14'
p654
sI661
S'14'
p655
sI662
S'14'
p656
sI663
S'14'
p657
sI664
S'14'
p658
sI665
S'14'
p659
sI666
S'14'
p660
sI667
S'14'
p661
sI668
S'14'
p662
sI669
S'14'
p663
sI670
S'14'
p664
sI671
S'14'
p665
sI672
S'14'
p666
sI673
S'14'
p667
sI674
S'14'
p668
sI675
S'14'
p669
sI676
S'14'
p670
sI677
S'14'
p671
sI678
S'14'
p672
sI679
S'14'
p673
sI680
S'14'
p674
sI681
S'14'
p675
sI682
S'14'
p676
sI683
S'14'
p677
sI684
S'14'
p678
sI685
S'14'
p679
sI686
S'14'
p680
sI687
S'14'
p681
sI688
S'14'
p682
sI689
S'14'
p683
sI690
S'14'
p684
sI691
S'14'
p685
sI692
S'14'
p686
sI693
S'14'
p687
sI694
S'14'
p688
sI695
S'14'
p689
sI696
S'14'
p690
sI697
S'14'
p691
sI698
S'14'
p692
sI699
S'14'
p693
sI700
S'14'
p694
sI701
S'14'
p695
sI702
S'14'
p696
sI703
S'14'
p697
sI704
S'14'
p698
sI705
S'14'
p699
sI706
S'14'
p700
sI707
S'14'
p701
sI708
S'14'
p702
sI709
S'14'
p703
sI710
S'14'
p704
sI711
S'14'
p705
sI712
S'14'
p706
sI713
S'14'
p707
sI714
S'14'
p708
sI715
S'14'
p709
sI716
S'14'
p710
sI717
S'14'
p711
sI718
S'14'
p712
sI719
S'14'
p713
sI720
S'14'
p714
sI721
S'14'
p715
sI722
S'14'
p716
sI723
S'14'
p717
sI724
S'14'
p718
sI725
S'14'
p719
sI726
S'14'
p720
sI727
S'14'
p721
sI728
S'14'
p722
sI729
S'14'
p723
sI730
S'14'
p724
sI731
S'14'
p725
sI732
S'14'
p726
sI733
S'14'
p727
sI734
S'14'
p728
sI735
S'14'
p729
sI736
S'14'
p730
sI737
S'14'
p731
sI738
S'14'
p732
sI739
S'14'
p733
sI740
S'14'
p734
sI741
S'14'
p735
sI742
S'14'
p736
sI743
S'14'
p737
sI744
S'14'
p738
sI745
S'14'
p739
sI746
S'14'
p740
sI747
S'14'
p741
sI748
S'14'
p742
sI749
S'14'
p743
sI750
S'14'
p744
sI751
S'14'
p745
sI752
S'14'
p746
sI753
S'14'
p747
sI754
S'14'
p748
sI755
S'14'
p749
sI756
S'14'
p750
sI757
S'14'
p751
sI758
S'14'
p752
sI759
S'14'
p753
sI760
S'14'
p754
sI761
S'14'
p755
sI762
S'14'
p756
sI763
S'14'
p757
sI764
S'14'
p758
sI765
S'14'
p759
sI766
S'14'
p760
sI767
S'14'
p761
sI768
S'14'
p762
sI769
S'14'
p763
sI770
S'14'
p764
sI771
S'14'
p765
sI772
S'14'
p766
sI773
S'14'
p767
sI774
S'14'
p768
sI775
S'14'
p769
sI776
S'14'
p770
sI777
S'14'
p771
sI778
S'14'
p772
sI779
S'14'
p773
sI780
S'14'
p774
sI781
S'14'
p775
sI782
S'14'
p776
sI783
S'14'
p777
sI784
S'14'
p778
sI785
S'14'
p779
sI786
S'14'
p780
sI787
S'14'
p781
sI788
S'14'
p782
sI789
S'14'
p783
sI790
S'14'
p784
sI791
S'14'
p785
sI792
S'14'
p786
sI793
S'14'
p787
sI794
S'14'
p788
sI795
S'14'
p789
sI796
S'14'
p790
sI797
S'14'
p791
sI798
S'14'
p792
sI799
S'14'
p793
sI800
S'14'
p794
sI801
S'14'
p795
sI802
S'14'
p796
sI803
S'14'
p797
sI804
S'14'
p798
sI805
S'14'
p799
sI806
S'14'
p800
sI807
S'14'
p801
sI808
S'14'
p802
sI809
S'14'
p803
sI810
S'14'
p804
sI811
S'14'
p805
sI812
S'14'
p806
sI813
S'14'
p807
sI814
S'14'
p808
sI815
S'14'
p809
sI816
S'14'
p810
sI817
S'14'
p811
sI818
S'14'
p812
sI819
S'14'
p813
sI820
S'14'
p814
sI821
S'14'
p815
sI822
S'14'
p816
sI823
S'14'
p817
sI824
S'14'
p818
sI825
S'14'
p819
sI826
S'14'
p820
sI827
S'14'
p821
sI828
S'14'
p822
sI829
S'14'
p823
sI830
S'14'
p824
sI831
S'14'
p825
sI832
S'14'
p826
sI833
S'14'
p827
sI834
S'14'
p828
sI835
S'14'
p829
sI836
S'14'
p830
sI837
S'14'
p831
sI838
S'14'
p832
sI839
S'14'
p833
sI840
S'14'
p834
sI841
S'14'
p835
sI842
S'14'
p836
sI843
S'14'
p837
sI844
S'14'
p838
sI845
S'14'
p839
sI846
S'14'
p840
sI847
S'14'
p841
sI848
S'14'
p842
sI849
S'14'
p843
sI850
S'14'
p844
sI851
S'14'
p845
sI852
S'14'
p846
sI853
S'14'
p847
sI854
S'14'
p848
sI855
S'14'
p849
sI856
S'14'
p850
sI857
S'14'
p851
sI858
S'14'
p852
sI859
S'14'
p853
sI860
S'14'
p854
sI861
S'14'
p855
sI862
S'14'
p856
sI863
S'14'
p857
sI864
S'14'
p858
sI865
S'14'
p859
sI866
S'14'
p860
sI867
S'14'
p861
sI868
S'14'
p862
sI869
S'14'
p863
sI870
S'14'
p864
sI871
S'14'
p865
sI872
S'14'
p866
sI873
S'14'
p867
sI874
S'14'
p868
sI875
S'14'
p869
sI876
S'14'
p870
sI877
S'14'
p871
sI878
S'14'
p872
sI879
S'14'
p873
sI880
S'14'
p874
sI881
S'14'
p875
sI882
S'14'
p876
sI883
S'14'
p877
sI884
S'14'
p878
sI885
S'14'
p879
sI886
S'14'
p880
sI887
S'14'
p881
sI888
S'14'
p882
sI889
S'14'
p883
sI890
S'14'
p884
sI891
S'14'
p885
sI892
S'14'
p886
sI893
S'14'
p887
sI894
S'14'
p888
sI895
S'14'
p889
sI896
S'14'
p890
sI897
S'14'
p891
sI898
S'14'
p892
sI899
S'14'
p893
sI900
S'14'
p894
sI901
S'14'
p895
sI902
S'14'
p896
sI903
S'14'
p897
sI904
S'14'
p898
sI905
S'14'
p899
sI906
S'14'
p900
sI907
S'14'
p901
sI908
S'14'
p902
sI909
S'14'
p903
sI910
S'14'
p904
sI911
S'14'
p905
sI912
S'14'
p906
sI913
S'14'
p907
sI914
S'14'
p908
sI915
S'14'
p909
sI916
S'14'
p910
sI917
S'14'
p911
sI918
S'14'
p912
sI919
S'14'
p913
sI920
S'14'
p914
sI921
S'14'
p915
sI922
S'14'
p916
sI923
S'14'
p917
sI924
S'14'
p918
sI925
S'14'
p919
sI926
S'14'
p920
sI927
S'14'
p921
sI928
S'14'
p922
sI929
S'14'
p923
sI930
S'14'
p924
sI931
S'14'
p925
sI932
S'14'
p926
sI933
S'14'
p927
sI934
S'14'
p928
sI935
S'14'
p929
sI936
S'14'
p930
sI937
S'14'
p931
sI938
S'14'
p932
sI939
S'14'
p933
sI940
S'14'
p934
sI941
S'14'
p935
sI942
S'14'
p936
sI943
S'14'
p937
sI944
S'14'
p938
sI945
S'14'
p939
sI946
S'14'
p940
sI947
S'14'
p941
sI948
S'14'
p942
sI949
S'14'
p943
sI950
S'14'
p944
sI951
S'14'
p945
sI952
S'14'
p946
sI953
S'14'
p947
sI954
S'14'
p948
sI955
S'14'
p949
sI956
S'14'
p950
sI957
S'14'
p951
sI958
S'14'
p952
sI959
S'14'
p953
sI960
S'14'
p954
sI961
S'14'
p955
sI962
S'14'
p956
sI963
S'14'
p957
sI964
S'14'
p958
sI965
S'14'
p959
sI966
S'14'
p960
sI967
S'14'
p961
sI968
S'14'
p962
sI969
S'14'
p963
sI970
S'14'
p964
sI971
S'14'
p965
sI972
S'14'
p966
sI973
S'14'
p967
sI974
S'14'
p968
sI975
S'14'
p969
sI976
S'14'
p970
sI977
S'14'
p971
sI978
S'14'
p972
sI979
S'14'
p973
sI980
S'14'
p974
sI981
S'14'
p975
sI982
S'14'
p976
sI983
S'14'
p977
sI984
S'14'
p978
sI985
S'14'
p979
sI986
S'14'
p980
sI987
S'14'
p981
sI988
S'14'
p982
sI989
S'14'
p983
sI990
S'14'
p984
sI991
S'14'
p985
sI992
S'14'
p986
sI993
S'14'
p987
sI994
S'14'
p988
sI995
S'14'
p989
sI996
S'14'
p990
sI997
S'14'
p991
sI998
S'14'
p992
sI999
S'14'
p993
sI1000
S'14'
p994
sI1001
S'14'
p995
sI1002
S'14'
p996
sI1003
S'14'
p997
sI1004
S'14'
p998
sI1005
S'14'
p999
sI1006
S'14'
p1000
sI1007
S'14'
p1001
sI1008
S'14'
p1002
sI1009
S'14'
p1003
sI1010
S'14'
p1004
sI1011
S'14'
p1005
sI1012
S'14'
p1006
sI1013
S'14'
p1007
sI1014
S'14'
p1008
sI1015
S'14'
p1009
sI1016
S'14'
p1010
sI1017
S'14'
p1011
sI1018
S'14'
p1012
sI1019
S'14'
p1013
sI1020
S'14'
p1014
sI1021
S'14'
p1015
sI1022
S'14'
p1016
sI1023
S'14'
p1017
sI1024
S'14'
p1018
sI1025
S'14'
p1019
sI1026
S'14'
p1020
sI1027
S'14'
p1021
sI1028
S'14'
p1022
sI1029
S'14'
p1023
sI1030
S'14'
p1024
sI1031
S'14'
p1025
sI1032
S'14'
p1026
sI1033
S'14'
p1027
sI1034
S'14'
p1028
sI1035
S'14'
p1029
sI1036
S'14'
p1030
sI1037
S'14'
p1031
sI1038
S'14'
p1032
sI1039
S'14'
p1033
sI1040
S'14'
p1034
sI1041
S'14'
p1035
sI1042
S'14'
p1036
sI1043
S'14'
p1037
sI1044
S'14'
p1038
sI1045
S'14'
p1039
sI1046
S'14'
p1040
sI1047
S'14'
p1041
sI1048
S'14'
p1042
sI1049
S'14'
p1043
sI1050
S'14'
p1044
sI1051
S'14'
p1045
sI1052
S'14'
p1046
sI1053
S'14'
p1047
sI1054
S'14'
p1048
sI1055
S'14'
p1049
sI1056
S'14'
p1050
sI1057
S'14'
p1051
sI1058
S'14'
p1052
sI1059
S'14'
p1053
sI1060
S'14'
p1054
sI1061
S'14'
p1055
sI1062
S'14'
p1056
sI1063
S'14'
p1057
sI1064
S'14'
p1058
sI1065
S'14'
p1059
sI1066
S'14'
p1060
sI1067
S'14'
p1061
sI1068
S'14'
p1062
sI1069
S'14'
p1063
sI1070
S'14'
p1064
sI1071
S'14'
p1065
sI1072
S'14'
p1066
sI1073
S'14'
p1067
sI1074
S'14'
p1068
sI1075
S'14'
p1069
sI1076
S'14'
p1070
sI1077
S'14'
p1071
sI1078
S'14'
p1072
sI1079
S'14'
p1073
sI1080
S'14'
p1074
sI1081
S'14'
p1075
sI1082
S'14'
p1076
sI1083
S'14'
p1077
sI1084
S'14'
p1078
sI1085
S'14'
p1079
sI1086
S'14'
p1080
sI1087
S'14'
p1081
sI1088
S'14'
p1082
sI1089
S'14'
p1083
sI1090
S'14'
p1084
sI1091
S'14'
p1085
sI1092
S'14'
p1086
sI1093
S'14'
p1087
sI1094
S'14'
p1088
sI1095
S'14'
p1089
sI1096
S'14'
p1090
sI1097
S'14'
p1091
sI1098
S'14'
p1092
sI1099
S'14'
p1093
sI1100
S'14'
p1094
sI1101
S'14'
p1095
sI1102
S'14'
p1096
sI1103
S'14'
p1097
sI1104
S'14'
p1098
sI1105
S'14'
p1099
sI1106
S'14'
p1100
sI1107
S'14'
p1101
sI1108
S'14'
p1102
sI1109
S'14'
p1103
sI1110
S'14'
p1104
sI1111
S'14'
p1105
sI1112
S'14'
p1106
sI1113
S'14'
p1107
sI1114
S'14'
p1108
sI1115
S'14'
p1109
sI1116
S'14'
p1110
sI1117
S'14'
p1111
sI1118
S'14'
p1112
sI1119
S'14'
p1113
sI1120
S'14'
p1114
sI1121
S'14'
p1115
sI1122
S'14'
p1116
sI1123
S'14'
p1117
sI1124
S'14'
p1118
sI1125
S'14'
p1119
sI1126
S'14'
p1120
sI1127
S'14'
p1121
sI1128
S'14'
p1122
sI1129
S'14'
p1123
sI1130
S'14'
p1124
sI1131
S'14'
p1125
sI1132
S'14'
p1126
sI1133
S'14'
p1127
sI1134
S'14'
p1128
sI1135
S'14'
p1129
sI1136
S'14'
p1130
sI1137
S'14'
p1131
sI1138
S'14'
p1132
sI1139
S'14'
p1133
sI1140
S'14'
p1134
sI1141
S'14'
p1135
sI1142
S'14'
p1136
sI1143
S'14'
p1137
sI1144
S'14'
p1138
sI1145
S'14'
p1139
sI1146
S'14'
p1140
sI1147
S'14'
p1141
sI1148
S'14'
p1142
sI1149
S'14'
p1143
sI1150
S'14'
p1144
sI1151
S'14'
p1145
sI1152
S'14'
p1146
sI1153
S'14'
p1147
sI1154
S'14'
p1148
sI1155
S'14'
p1149
sI1156
S'14'
p1150
sI1157
S'14'
p1151
sI1158
S'14'
p1152
sI1159
S'14'
p1153
sI1160
S'14'
p1154
sI1161
S'14'
p1155
sI1162
S'14'
p1156
sI1163
S'14'
p1157
sI1164
S'14'
p1158
sI1165
S'14'
p1159
sI1166
S'14'
p1160
sI1167
S'14'
p1161
sI1168
S'14'
p1162
sI1169
S'14'
p1163
sI1170
S'14'
p1164
sI1171
S'14'
p1165
sI1172
S'14'
p1166
sI1173
S'14'
p1167
sI1174
S'14'
p1168
sI1175
S'14'
p1169
sI1176
S'14'
p1170
sI1177
S'14'
p1171
sI1178
S'14'
p1172
sI1179
S'14'
p1173
sI1180
S'14'
p1174
sI1181
S'14'
p1175
sI1182
S'14'
p1176
sI1183
S'14'
p1177
sI1184
S'14'
p1178
sI1185
S'14'
p1179
sI1186
S'14'
p1180
sI1187
S'14'
p1181
sI1188
S'14'
p1182
sI1189
S'14'
p1183
sI1190
S'14'
p1184
sI1191
S'14'
p1185
sI1192
S'14'
p1186
sI1193
S'14'
p1187
sI1194
S'14'
p1188
sI1195
S'14'
p1189
sI1196
S'14'
p1190
sI1197
S'14'
p1191
sI1198
S'14'
p1192
sI1199
S'14'
p1193
sI1200
S'14'
p1194
sI1201
S'14'
p1195
sI1202
S'14'
p1196
sI1203
S'14'
p1197
sI1204
S'14'
p1198
sI1205
S'14'
p1199
sI1206
S'14'
p1200
sI1207
S'14'
p1201
sI1208
S'14'
p1202
sI1209
S'14'
p1203
sI1210
S'14'
p1204
sI1211
S'14'
p1205
sI1212
S'14'
p1206
sI1213
S'14'
p1207
sI1214
S'14'
p1208
sI1215
S'14'
p1209
sI1216
S'14'
p1210
sI1217
S'14'
p1211
sI1218
S'14'
p1212
sI1219
S'14'
p1213
sI1220
S'14'
p1214
sI1221
S'14'
p1215
sI1222
S'14'
p1216
sI1223
S'14'
p1217
sI1224
S'14'
p1218
sI1225
S'14'
p1219
sI1226
S'14'
p1220
sI1227
S'14'
p1221
sI1228
S'14'
p1222
sI1229
S'14'
p1223
sI1230
S'14'
p1224
sI1231
S'14'
p1225
sI1232
S'14'
p1226
sI1233
S'14'
p1227
sI1234
S'14'
p1228
sI1235
S'14'
p1229
sI1236
S'14'
p1230
sI1237
S'14'
p1231
sI1238
S'14'
p1232
sI1239
S'14'
p1233
sI1240
S'14'
p1234
sI1241
S'14'
p1235
sI1242
S'14'
p1236
sI1243
S'14'
p1237
sI1244
S'14'
p1238
sI1245
S'14'
p1239
sI1246
S'14'
p1240
sI1247
S'14'
p1241
sI1248
S'14'
p1242
sI1249
S'14'
p1243
sI1250
S'14'
p1244
sI1251
S'14'
p1245
sI1252
S'14'
p1246
sI1253
S'14'
p1247
sI1254
S'14'
p1248
sI1255
S'14'
p1249
sI1256
S'14'
p1250
sI1257
S'14'
p1251
sI1258
S'14'
p1252
sI1259
S'14'
p1253
sI1260
S'14'
p1254
sI1261
S'14'
p1255
sI1262
S'14'
p1256
sI1263
S'14'
p1257
sI1264
S'14'
p1258
sI1265
S'14'
p1259
sI1266
S'14'
p1260
sI1267
S'14'
p1261
sI1268
S'14'
p1262
sI1269
S'14'
p1263
sI1270
S'14'
p1264
sI1271
S'14'
p1265
sI1272
S'14'
p1266
sI1273
S'14'
p1267
sI1274
S'14'
p1268
sI1275
S'14'
p1269
sI1276
S'14'
p1270
sI1277
S'14'
p1271
sI1278
S'14'
p1272
sI1279
S'14'
p1273
sI1280
S'14'
p1274
sI1281
S'14'
p1275
sI1282
S'14'
p1276
sI1283
S'14'
p1277
sI1284
S'14'
p1278
sI1285
S'14'
p1279
sI1286
S'14'
p1280
sI1287
S'14'
p1281
sI1288
S'14'
p1282
sI1289
S'14'
p1283
sI1290
S'14'
p1284
sI1291
S'14'
p1285
sI1292
S'14'
p1286
sI1293
S'14'
p1287
sI1294
S'14'
p1288
sI1295
S'14'
p1289
sI1296
S'14'
p1290
sI1297
S'14'
p1291
sI1298
S'14'
p1292
sI1299
S'14'
p1293
sI1300
S'14'
p1294
sI1301
S'14'
p1295
sI1302
S'14'
p1296
sI1303
S'14'
p1297
sI1304
S'14'
p1298
sI1305
S'14'
p1299
sI1306
S'14'
p1300
sI1307
S'14'
p1301
sI1308
S'14'
p1302
sI1309
S'14'
p1303
sI1310
S'14'
p1304
sI1311
S'14'
p1305
sI1312
S'14'
p1306
sI1313
S'14'
p1307
sI1314
S'14'
p1308
sI1315
S'14'
p1309
sI1316
S'14'
p1310
sI1317
S'14'
p1311
sI1318
S'14'
p1312
sI1319
S'14'
p1313
sI1320
S'14'
p1314
sI1321
S'14'
p1315
sI1322
S'14'
p1316
sI1323
S'14'
p1317
sI1324
S'14'
p1318
sI1325
S'14'
p1319
sI1326
S'14'
p1320
sI1327
S'14'
p1321
sI1328
S'14'
p1322
sI1329
S'14'
p1323
sI1330
S'14'
p1324
sI1331
S'14'
p1325
sI1332
S'14'
p1326
sI1333
S'14'
p1327
sI1334
S'14'
p1328
sI1335
S'14'
p1329
sI1336
S'14'
p1330
sI1337
S'14'
p1331
sI1338
S'14'
p1332
sI1339
S'14'
p1333
sI1340
S'14'
p1334
sI1341
S'14'
p1335
sI1342
S'14'
p1336
sI1343
S'14'
p1337
sI1344
S'14'
p1338
sI1345
S'14'
p1339
sI1346
S'14'
p1340
sI1347
S'14'
p1341
sI1348
S'14'
p1342
sI1349
S'14'
p1343
sI1350
S'14'
p1344
sI1351
S'14'
p1345
sI1352
S'14'
p1346
sI1353
S'14'
p1347
sI1354
S'14'
p1348
sI1355
S'14'
p1349
sI1356
S'14'
p1350
sI1357
S'14'
p1351
sI1358
S'14'
p1352
sI1359
S'14'
p1353
sI1360
S'14'
p1354
sI1361
S'14'
p1355
sI1362
S'14'
p1356
sI1363
S'14'
p1357
sI1364
S'14'
p1358
sI1365
S'14'
p1359
sI1366
S'14'
p1360
sI1367
S'14'
p1361
sI1368
S'14'
p1362
sI1369
S'14'
p1363
sI1370
S'14'
p1364
sI1371
S'14'
p1365
sI1372
S'14'
p1366
sI1373
S'14'
p1367
sI1374
S'14'
p1368
sI1375
S'14'
p1369
sI1376
S'14'
p1370
sI1377
S'14'
p1371
sI1378
S'14'
p1372
sI1379
S'14'
p1373
sI1380
S'14'
p1374
sI1381
S'14'
p1375
sI1382
S'14'
p1376
sI1383
S'14'
p1377
sI1384
S'14'
p1378
sI1385
S'14'
p1379
sI1386
S'14'
p1380
sI1387
S'14'
p1381
sI1388
S'14'
p1382
sI1389
S'14'
p1383
sI1390
S'14'
p1384
sI1391
S'14'
p1385
sI1392
S'14'
p1386
sI1393
S'14'
p1387
sI1394
S'14'
p1388
sI1395
S'14'
p1389
sI1396
S'14'
p1390
sI1397
S'14'
p1391
sI1398
S'14'
p1392
sI1399
S'14'
p1393
sI1400
S'14'
p1394
sI1401
S'14'
p1395
sI1402
S'14'
p1396
sI1403
S'14'
p1397
sI1404
S'14'
p1398
sI1405
S'14'
p1399
sI1406
S'14'
p1400
sI1407
S'14'
p1401
sI1408
S'14'
p1402
sI1409
S'14'
p1403
sI1410
S'14'
p1404
sI1411
S'14'
p1405
sI1412
S'14'
p1406
sI1413
S'14'
p1407
sI1414
S'14'
p1408
sI1415
S'14'
p1409
sI1416
S'14'
p1410
sI1417
S'14'
p1411
sI1418
S'14'
p1412
sI1419
S'14'
p1413
sI1420
S'14'
p1414
sI1421
S'14'
p1415
sI1422
S'14'
p1416
sI1423
S'14'
p1417
sI1424
S'14'
p1418
sI1425
S'14'
p1419
sI1426
S'14'
p1420
sI1427
S'14'
p1421
sI1428
S'14'
p1422
sI1429
S'14'
p1423
sI1430
S'14'
p1424
sI1431
S'14'
p1425
sI1432
S'14'
p1426
sI1433
S'14'
p1427
sI1434
S'14'
p1428
sI1435
S'14'
p1429
sI1436
S'14'
p1430
sI1437
S'14'
p1431
sI1438
S'14'
p1432
sI1439
S'14'
p1433
sI1440
S'14'
p1434
sI1441
S'14'
p1435
sI1442
S'14'
p1436
sI1443
S'14'
p1437
sI1444
S'14'
p1438
sI1445
S'14'
p1439
sI1446
S'14'
p1440
sI1447
S'14'
p1441
sI1448
S'14'
p1442
sI1449
S'14'
p1443
sI1450
S'14'
p1444
sI1451
S'14'
p1445
sI1452
S'14'
p1446
sI1453
S'14'
p1447
sI1454
S'14'
p1448
sI1455
S'14'
p1449
sI1456
S'14'
p1450
sI1457
S'14'
p1451
sI1458
S'14'
p1452
sI1459
S'14'
p1453
sI1460
S'14'
p1454
sI1461
S'14'
p1455
sI1462
S'14'
p1456
sI1463
S'14'
p1457
sI1464
S'14'
p1458
sI1465
S'14'
p1459
sI1466
S'14'
p1460
sI1467
S'14'
p1461
sI1468
S'14'
p1462
sI1469
S'14'
p1463
sI1470
S'14'
p1464
sI1471
S'14'
p1465
sI1472
S'14'
p1466
sI1473
S'14'
p1467
sI1474
S'14'
p1468
sI1475
S'14'
p1469
sI1476
S'14'
p1470
sI1477
S'14'
p1471
sI1478
S'14'
p1472
sI1479
S'14'
p1473
sI1480
S'14'
p1474
sI1481
S'14'
p1475
sI1482
S'14'
p1476
sI1483
S'14'
p1477
sI1485
S'1486'
p1478
sI1486
S'1486'
p1479
sI1488
S'1486'
p1480
sI1490
S'1486'
p1481
sI1492
S'1486'
p1482
sI1494
S'1486'
p1483
sI1496
S'1486'
p1484
sI1498
S'1486'
p1485
sI1500
S'1486'
p1486
sI1502
S'1486'
p1487
sI1504
S'1486'
p1488
sI1506
S'1486'
p1489
sI1509
S'1486'
p1490
sI1511
S'1486'
p1491
sI1513
S'1486'
p1492
sI1515
S'1486'
p1493
sI1518
S'1486'
p1494
sI1520
S'1486'
p1495
sI1522
S'1486'
p1496
sI1524
S'1486'
p1497
sI1526
S'1486'
p1498
sI1527
S'1486'
p1499
sI1528
S'1486'
p1500
sI1530
S'1486'
p1501
sI1532
S'1486'
p1502
sI1534
S'1486'
p1503
sI1536
S'1486'
p1504
sI1538
S'1486'
p1505
sI1540
S'1486'
p1506
sI1542
S'1486'
p1507
sI1544
S'1486'
p1508
sI1546
S'1486'
p1509
sI1548
S'1486'
p1510
sI1550
S'1486'
p1511
sI1553
S'1486'
p1512
sI1555
S'1486'
p1513
sI1557
S'1486'
p1514
sI1559
S'1486'
p1515
sI1560
S'1486'
p1516
sI1561
S'1486'
p1517
sI1564
S'1486'
p1518
sI1566
S'1486'
p1519
sI1568
S'1486'
p1520
sI1570
S'1486'
p1521
sI1572
S'1486'
p1522
sI1574
S'1486'
p1523
sI1576
S'1486'
p1524
sI1578
S'1486'
p1525
sI1580
S'1486'
p1526
sI1582
S'1486'
p1527
sI1584
S'1486'
p1528
sI1586
S'1486'
p1529
sI1588
S'1486'
p1530
sI1590
S'1486'
p1531
sI1592
S'1486'
p1532
sI1593
S'1486'
p1533
sI1595
S'1486'
p1534
sI1597
S'1486'
p1535
sI1599
S'1486'
p1536
sI1601
S'1486'
p1537
sI1603
S'1486'
p1538
sI1605
S'1486'
p1539
sI1607
S'1486'
p1540
sI1609
S'1486'
p1541
sI1611
S'1486'
p1542
sI1613
S'1486'
p1543
sI1615
S'1486'
p1544
sI1617
S'1486'
p1545
sI1619
S'1486'
p1546
sI1621
S'1486'
p1547
sI1623
S'1486'
p1548
sI1625
S'1486'
p1549
sI1627
S'1486'
p1550
sI1629
S'1486'
p1551
sI1631
S'1486'
p1552
sI1633
S'1486'
p1553
sI1635
S'1486'
p1554
sI1637
S'1486'
p1555
sI1639
S'1486'
p1556
sI1641
S'1486'
p1557
sI1643
S'1486'
p1558
sI1645
S'1486'
p1559
sI1647
S'1486'
p1560
sI1649
S'1486'
p1561
sI1651
S'1486'
p1562
sI1653
S'1486'
p1563
sI1655
S'1486'
p1564
sI1657
S'1486'
p1565
sI1659
S'1486'
p1566
sI1661
S'1486'
p1567
sI1663
S'1486'
p1568
sI1665
S'1486'
p1569
sI1667
S'1486'
p1570
sI1669
S'1486'
p1571
sI1671
S'1486'
p1572
sI1673
S'1486'
p1573
sI1675
S'1486'
p1574
sI1677
S'1486'
p1575
sI1679
S'1486'
p1576
sI1681
S'1486'
p1577
sI1683
S'1486'
p1578
sI1685
S'1486'
p1579
sI1687
S'1486'
p1580
sI1689
S'1486'
p1581
sI1691
S'1486'
p1582
sI1693
S'1486'
p1583
sI1695
S'1486'
p1584
sI1697
S'1486'
p1585
sI1699
S'1486'
p1586
sI1701
S'1486'
p1587
sI1703
S'1486'
p1588
sI1705
S'1486'
p1589
sI1707
S'1486'
p1590
sI1709
S'1486'
p1591
sI1711
S'1486'
p1592
sI1713
S'1486'
p1593
sI1715
S'1486'
p1594
sI1717
S'1486'
p1595
sI1719
S'1486'
p1596
sI1721
S'1486'
p1597
sI1723
S'1486'
p1598
sI1725
S'1486'
p1599
sI1727
S'1486'
p1600
sI1729
S'1486'
p1601
sI1731
S'1486'
p1602
sI1733
S'1486'
p1603
sI1735
S'1486'
p1604
sI1737
S'1486'
p1605
sI1739
S'1486'
p1606
sI1741
S'1486'
p1607
sI1743
S'1486'
p1608
sI1745
S'1486'
p1609
sI1747
S'1486'
p1610
sI1749
S'1486'
p1611
sI1751
S'1486'
p1612
sI1753
S'1486'
p1613
sI1755
S'1486'
p1614
sI1757
S'1486'
p1615
sI1759
S'1486'
p1616
sI1761
S'1486'
p1617
sI1763
S'1486'
p1618
sI1765
S'1486'
p1619
sI1767
S'1486'
p1620
sI1769
S'1486'
p1621
sI1771
S'1486'
p1622
sI1774
S'1486'
p1623
sI1776
S'1486'
p1624
sI1778
S'1486'
p1625
sI1780
S'1486'
p1626
sI1782
S'1486'
p1627
sI1784
S'1486'
p1628
sI1786
S'1486'
p1629
sI1788
S'1486'
p1630
sI1790
S'1486'
p1631
sI1792
S'1486'
p1632
sI1794
S'1486'
p1633
sI1796
S'1486'
p1634
sI1799
S'1486'
p1635
sI1801
S'1486'
p1636
sI1803
S'1486'
p1637
sI1805
S'1486'
p1638
sI1807
S'1486'
p1639
sI1809
S'1486'
p1640
sI1811
S'1486'
p1641
sI1813
S'1486'
p1642
sI1815
S'1486'
p1643
sI1817
S'1486'
p1644
sI1819
S'1486'
p1645
sI1821
S'1486'
p1646
sI1823
S'1486'
p1647
sI1825
S'1486'
p1648
sI1827
S'1486'
p1649
sI1829
S'1486'
p1650
sI1831
S'1486'
p1651
sI1833
S'1486'
p1652
sI1835
S'1486'
p1653
sI1837
S'1486'
p1654
sI1839
S'1486'
p1655
sI1841
S'1486'
p1656
sI1843
S'1486'
p1657
sI1845
S'1486'
p1658
sI1847
S'1486'
p1659
sI1849
S'1486'
p1660
sI1851
S'1486'
p1661
sI1853
S'1486'
p1662
sI1855
S'1486'
p1663
sI1857
S'1486'
p1664
sI1859
S'1486'
p1665
sI1861
S'1486'
p1666
sI1863
S'1486'
p1667
sI1865
S'1486'
p1668
sI1867
S'1486'
p1669
sI1869
S'1486'
p1670
sI1871
S'1486'
p1671
sI1873
S'1486'
p1672
sI1875
S'1486'
p1673
sI1877
S'1486'
p1674
sI1879
S'1486'
p1675
sI1881
S'1486'
p1676
sI1884
S'1486'
p1677
sI1886
S'1486'
p1678
sI1888
S'1486'
p1679
sI1889
S'1486'
p1680
sI1891
S'1486'
p1681
sI1893
S'1486'
p1682
sI1895
S'1486'
p1683
sI1897
S'1486'
p1684
sI1899
S'1486'
p1685
sI1901
S'1486'
p1686
sI1903
S'1486'
p1687
sI1905
S'1486'
p1688
sI1907
S'1486'
p1689
sI1909
S'1486'
p1690
sI1911
S'1486'
p1691
sI1913
S'1486'
p1692
sI1915
S'1486'
p1693
sI1917
S'1486'
p1694
sI1919
S'1486'
p1695
sI1921
S'1486'
p1696
sI1923
S'1486'
p1697
sI1925
S'1486'
p1698
sI1927
S'1486'
p1699
sI1929
S'1486'
p1700
sI1931
S'1486'
p1701
sI1933
S'1486'
p1702
sI1935
S'1486'
p1703
sI1937
S'1486'
p1704
sI1939
S'1486'
p1705
sI1941
S'1486'
p1706
sI1942
S'14'
p1707
sI1943
S'14'
p1708
sI1944
S'14'
p1709
sI1946
S'1486'
p1710
sI1948
S'1486'
p1711
sI1950
S'1486'
p1712
sI1952
S'1486'
p1713
sI1954
S'1486'
p1714
sI1956
S'1486'
p1715
sI1958
S'1486'
p1716
sI1960
S'1486'
p1717
sI1962
S'1486'
p1718
sI1964
S'1486'
p1719
sI1966
S'1486'
p1720
sI1968
S'1486'
p1721
sI1970
S'1486'
p1722
sI1972
S'1486'
p1723
sI1974
S'1486'
p1724
sI1976
S'1486'
p1725
sI1978
S'1486'
p1726
sI1980
S'1486'
p1727
sI1982
S'1486'
p1728
sI1984
S'1486'
p1729
sI1986
S'1486'
p1730
sI1988
S'1486'
p1731
sI1990
S'1486'
p1732
sI1992
S'1486'
p1733
sI1994
S'1486'
p1734
sI1996
S'1486'
p1735
sI1998
S'1486'
p1736
sI2000
S'1486'
p1737
sI2002
S'1486'
p1738
sI2004
S'1486'
p1739
sI2006
g1
sI2007
S'1561'
p1740
sI2008
S'1524'
p1741
sI2009
S'1875'
p1742
sI2010
S'1869'
p1743
sI2011
S'1857'
p1744
sI2012
S'1855'
p1745
sI2013
S'8'
p1746
sI2014
S'1530'
p1747
sI2015
S'1530'
p1748
sI2016
S'1794'
p1749
sI2017
S'1530'
p1750
sI2018
S'1631'
p1751
sI2019
S'1595'
p1752
sI2020
S'1530'
p1753
sI2021
S'1530'
p1754
sI2022
S'1530'
p1755
sI2023
S'1530'
p1756
sI2024
S'1663'
p1757
sI2025
S'1530'
p1758
sI2027
S'1530'
p1759
sI2028
S'1631'
p1760
sI2029
S'1663'
p1761
sI2030
S'10'
p1762
sI2034
S'1881'
p1763
sI2035
S'1603'
p1764
sI2036
S'1601'
p1765
sI2037
S'1871'
p1766
sI2038
S'1601'
p1767
sI2040
S'1778'
p1768
sI2042
S'1540'
p1769
sI2043
S'1538'
p1770
sI2044
S'1538'
p1771
sI2045
S'1538'
p1772
sI2046
S'1530'
p1773
sI2047
S'1530'
p1774
sI2048
S'1776'
p1775
sI2049
S'1530'
p1776
sI2050
S'1809'
p1777
sI2051
S'1530'
p1778
sI2052
S'1657'
p1779
sI2053
S'1530'
p1780
sI2054
S'1530'
p1781
sI2055
S'1841'
p1782
sI2056
S'1759'
p1783
sI2057
S'1530'
p1784
sI2058
S'1530'
p1785
sI2059
S'1530'
p1786
sI2060
S'1530'
p1787
sI2061
S'1530'
p1788
sI2062
S'1530'
p1789
sI2063
S'1530'
p1790
sI2064
S'1699'
p1791
sI2065
S'1530'
p1792
sI2066
S'1948'
p1793
sI2067
S'1952'
p1794
sI2068
S'1950'
p1795
sI2069
S'1954'
p1796
sI2070
S'1530'
p1797
sI2071
S'1982'
p1798
sI2072
S'1954'
p1799
sI2073
S'1982'
p1800
sI2074
S'1954'
p1801
sI2075
S'1954'
p1802
sI2076
S'1954'
p1803
sI2077
S'1982'
p1804
sI2078
S'1954'
p1805
sI2079
S'1982'
p1806
sI2080
S'1954'
p1807
sI2081
S'1954'
p1808
sI2082
S'1954'
p1809
sI2083
S'1954'
p1810
sI2084
S'1954'
p1811
sI2085
S'1954'
p1812
sI2086
S'1954'
p1813
sI2087
S'1954'
p1814
sI2088
S'1982'
p1815
sI2089
S'1954'
p1816
sI2090
S'1954'
p1817
sI2091
S'1530'
p1818
sI2092
S'1956'
p1819
sI2093
S'1968'
p1820
sI2094
S'1970'
p1821
sI2097
S'1982'
p1822
sI2100
S'1982'
p1823
sI2101
S'1982'
p1824
sI2104
S'1986'
p1825
sI2105
S'1530'
p1826
sI2106
S'1958'
p1827
sI2107
S'1530'
p1828
sI2108
S'1530'
p1829
sI2109
S'1530'
p1830
sI2110
S'1976'
p1831
sI2111
S'1530'
p1832
sI2112
S'2000'
p1833
sI2113
S'1998'
p1834
sI2114
S'1530'
p1835
sI2115
S'1532'
p1836
sI2116
S'1532'
p1837
sI2117
S'1532'
p1838
sI2118
S'1532'
p1839
sI2119
S'1532'
p1840
sI2120
S'1532'
p1841
sI2121
S'1532'
p1842
sI2122
S'1532'
p1843
sI2123
S'1532'
p1844
sI2124
S'1532'
p1845
sI2125
S'1532'
p1846
sI2126
S'1532'
p1847
sI2127
S'1532'
p1848
sI2128
S'1532'
p1849
sI2129
S'1532'
p1850
sI2130
S'1532'
p1851
sI2131
S'1532'
p1852
sI2132
S'1532'
p1853
sI2133
S'1532'
p1854
sI2134
S'1532'
p1855
sI2135
S'1532'
p1856
sI2136
S'1532'
p1857
sI2137
S'1532'
p1858
sI2138
S'1532'
p1859
sI2139
S'1532'
p1860
sI2140
S'1532'
p1861
sI2141
S'1532'
p1862
sI2142
S'1532'
p1863
sI2143
S'1532'
p1864
sI2144
S'1532'
p1865
sI2145
S'1532'
p1866
sI2146
S'1532'
p1867
sI2147
S'1532'
p1868
sI2148
S'1532'
p1869
sI2149
S'1532'
p1870
sI2150
S'1532'
p1871
sI2151
S'1532'
p1872
sI2152
S'1532'
p1873
sI2153
S'1532'
p1874
sI2154
S'1532'
p1875
sI2155
S'1532'
p1876
sI2156
S'1532'
p1877
sI2157
S'1532'
p1878
sI2158
S'1532'
p1879
sI2159
S'1532'
p1880
sI2160
S'1532'
p1881
sI2161
S'1532'
p1882
sI2162
S'1532'
p1883
sI2163
S'1532'
p1884
sI2164
S'1532'
p1885
sI2165
S'1532'
p1886
sI2166
S'1532'
p1887
sI2167
S'1532'
p1888
sI2168
S'1532'
p1889
sI2169
S'1532'
p1890
sI2170
S'1532'
p1891
sI2171
S'1532'
p1892
sI2172
S'1532'
p1893
sI2173
S'1532'
p1894
sI2174
S'1532'
p1895
sI2175
S'1532'
p1896
sI2176
S'1532'
p1897
sI2177
S'1532'
p1898
sI2178
S'1532'
p1899
sI2179
S'1532'
p1900
sI2180
S'1532'
p1901
sI2181
S'1532'
p1902
sI2182
S'1532'
p1903
sI2183
S'1532'
p1904
sI2184
S'1532'
p1905
sI2185
S'1532'
p1906
sI2186
S'1532'
p1907
sI2187
S'1532'
p1908
sI2188
S'1532'
p1909
sI2189
S'1532'
p1910
sI2190
S'1532'
p1911
sI2191
S'1532'
p1912
sI2192
S'1532'
p1913
sI2193
S'1532'
p1914
sI2194
S'1532'
p1915
sI2195
S'1530'
p1916
sI2196
S'1530'
p1917
sI2197
S'1568'
p1918
sI2198
S'1548'
p1919
sI2199
S'1548'
p1920
sI2200
S'1548'
p1921
sI2201
S'1548'
p1922
sI2202
S'1548'
p1923
sI2203
S'1548'
p1924
sI2204
S'1548'
p1925
sI2205
S'1548'
p1926
sI2206
S'1548'
p1927
sI2207
S'1548'
p1928
sI2208
S'1548'
p1929
sI2209
S'1548'
p1930
sI2210
S'1548'
p1931
sI2211
S'1548'
p1932
sI2212
S'1548'
p1933
sI2213
S'1548'
p1934
sI2214
S'1548'
p1935
sI2215
S'1548'
p1936
sI2216
S'1548'
p1937
sI2217
S'1548'
p1938
sI2218
S'1548'
p1939
sI2219
S'1548'
p1940
sI2220
S'1548'
p1941
sI2221
S'1548'
p1942
sI2222
S'1548'
p1943
sI2223
S'1548'
p1944
sI2224
S'1548'
p1945
sI2225
S'1548'
p1946
sI2226
S'1548'
p1947
sI2227
S'1548'
p1948
sI2228
S'1548'
p1949
sI2229
S'1548'
p1950
sI2230
S'1548'
p1951
sI2231
S'1548'
p1952
sI2232
S'1548'
p1953
sI2233
S'1548'
p1954
sI2234
S'1548'
p1955
sI2235
S'1548'
p1956
sI2236
S'1548'
p1957
sI2237
S'1548'
p1958
sI2238
S'1548'
p1959
sI2239
S'1548'
p1960
sI2240
S'1548'
p1961
sI2241
S'1548'
p1962
sI2242
S'1548'
p1963
sI2243
S'1548'
p1964
sI2244
S'1548'
p1965
sI2245
S'1548'
p1966
sI2246
S'1548'
p1967
sI2247
S'1548'
p1968
sI2248
S'1548'
p1969
sI2249
S'1548'
p1970
sI2250
S'1548'
p1971
sI2251
S'1548'
p1972
sI2252
S'1548'
p1973
sI2253
S'1530'
p1974
sI2254
S'1568'
p1975
sI2255
S'1548'
p1976
sI2256
S'1548'
p1977
sI2257
S'1548'
p1978
sI2258
S'1548'
p1979
sI2259
S'1548'
p1980
sI2260
S'1548'
p1981
sI2261
S'1548'
p1982
sI2262
S'1548'
p1983
sI2263
S'1548'
p1984
sI2264
S'1548'
p1985
sI2265
S'1548'
p1986
sI2266
S'1548'
p1987
sI2267
S'1548'
p1988
sI2268
S'1548'
p1989
sI2269
S'1548'
p1990
sI2270
S'1548'
p1991
sI2271
S'1548'
p1992
sI2272
S'1548'
p1993
sI2273
S'1548'
p1994
sI2274
S'1548'
p1995
sI2275
S'1548'
p1996
sI2276
S'1548'
p1997
sI2277
S'1548'
p1998
sI2278
S'1548'
p1999
sI2279
S'1548'
p2000
sI2280
S'1548'
p2001
sI2281
S'1548'
p2002
sI2282
S'1548'
p2003
sI2283
S'1548'
p2004
sI2284
S'1548'
p2005
sI2285
S'1548'
p2006
sI2286
S'1548'
p2007
sI2287
S'1548'
p2008
sI2288
S'1548'
p2009
sI2289
S'1548'
p2010
sI2290
S'1548'
p2011
sI2291
S'1548'
p2012
sI2292
S'1548'
p2013
sI2293
S'1548'
p2014
sI2294
S'1548'
p2015
sI2295
S'1548'
p2016
sI2296
S'1548'
p2017
sI2297
S'1548'
p2018
sI2298
S'1548'
p2019
sI2299
S'1548'
p2020
sI2300
S'1548'
p2021
sI2301
S'1548'
p2022
sI2302
S'1548'
p2023
sI2303
S'1548'
p2024
sI2304
S'1548'
p2025
sI2305
S'1548'
p2026
sI2306
S'1548'
p2027
sI2307
S'1548'
p2028
sI2308
S'1548'
p2029
sI2309
S'1548'
p2030
sI2310
S'1530'
p2031
sI2311
S'1568'
p2032
sI2312
S'1548'
p2033
sI2313
S'1548'
p2034
sI2314
S'1548'
p2035
sI2315
S'1548'
p2036
sI2316
S'1548'
p2037
sI2317
S'1548'
p2038
sI2318
S'1548'
p2039
sI2319
S'1548'
p2040
sI2320
S'1548'
p2041
sI2321
S'1548'
p2042
sI2322
S'1548'
p2043
sI2323
S'1548'
p2044
sI2324
S'1548'
p2045
sI2325
S'1548'
p2046
sI2326
S'1548'
p2047
sI2327
S'1548'
p2048
sI2328
S'1548'
p2049
sI2329
S'1548'
p2050
sI2330
S'1548'
p2051
sI2331
S'1548'
p2052
sI2332
S'1548'
p2053
sI2333
S'1548'
p2054
sI2334
S'1548'
p2055
sI2335
S'1548'
p2056
sI2336
S'1548'
p2057
sI2337
S'1548'
p2058
sI2338
S'1548'
p2059
sI2339
S'1548'
p2060
sI2340
S'1548'
p2061
sI2341
S'1548'
p2062
sI2342
S'1548'
p2063
sI2343
S'1548'
p2064
sI2344
S'1548'
p2065
sI2345
S'1548'
p2066
sI2346
S'1548'
p2067
sI2347
S'1548'
p2068
sI2348
S'1548'
p2069
sI2349
S'1548'
p2070
sI2350
S'1548'
p2071
sI2351
S'1548'
p2072
sI2352
S'1548'
p2073
sI2353
S'1548'
p2074
sI2354
S'1548'
p2075
sI2355
S'1548'
p2076
sI2356
S'1548'
p2077
sI2357
S'1548'
p2078
sI2358
S'1548'
p2079
sI2359
S'1548'
p2080
sI2360
S'1548'
p2081
sI2361
S'1548'
p2082
sI2362
S'1548'
p2083
sI2363
S'1548'
p2084
sI2364
S'1548'
p2085
sI2365
S'1548'
p2086
sI2366
S'1548'
p2087
sI2367
S'1530'
p2088
sI2368
S'1568'
p2089
sI2369
S'1548'
p2090
sI2370
S'1548'
p2091
sI2371
S'1548'
p2092
sI2372
S'1548'
p2093
sI2373
S'1548'
p2094
sI2374
S'1548'
p2095
sI2375
S'1548'
p2096
sI2376
S'1548'
p2097
sI2377
S'1548'
p2098
sI2378
S'1548'
p2099
sI2379
S'1548'
p2100
sI2380
S'1548'
p2101
sI2381
S'1548'
p2102
sI2382
S'1548'
p2103
sI2383
S'1548'
p2104
sI2384
S'1548'
p2105
sI2385
S'1548'
p2106
sI2386
S'1548'
p2107
sI2387
S'1548'
p2108
sI2388
S'1548'
p2109
sI2389
S'1548'
p2110
sI2390
S'1548'
p2111
sI2391
S'1548'
p2112
sI2392
S'1548'
p2113
sI2393
S'1548'
p2114
sI2394
S'1548'
p2115
sI2395
S'1548'
p2116
sI2396
S'1548'
p2117
sI2397
S'1548'
p2118
sI2398
S'1548'
p2119
sI2399
S'1548'
p2120
sI2400
S'1548'
p2121
sI2401
S'1548'
p2122
sI2402
S'1548'
p2123
sI2403
S'1548'
p2124
sI2404
S'1548'
p2125
sI2405
S'1548'
p2126
sI2406
S'1548'
p2127
sI2407
S'1548'
p2128
sI2408
S'1548'
p2129
sI2409
S'1548'
p2130
sI2410
S'1548'
p2131
sI2411
S'1548'
p2132
sI2412
S'1548'
p2133
sI2413
S'1548'
p2134
sI2414
S'1548'
p2135
sI2415
S'1548'
p2136
sI2416
S'1548'
p2137
sI2417
S'1548'
p2138
sI2418
S'1548'
p2139
sI2419
S'1548'
p2140
sI2420
S'1548'
p2141
sI2421
S'1548'
p2142
sI2422
S'1548'
p2143
sI2423
S'1548'
p2144
sI2424
S'1530'
p2145
sI2425
S'1568'
p2146
sI2426
S'1548'
p2147
sI2427
S'1548'
p2148
sI2428
S'1548'
p2149
sI2429
S'1548'
p2150
sI2430
S'1548'
p2151
sI2431
S'1548'
p2152
sI2432
S'1548'
p2153
sI2433
S'1548'
p2154
sI2434
S'1548'
p2155
sI2435
S'1548'
p2156
sI2436
S'1548'
p2157
sI2437
S'1548'
p2158
sI2438
S'1548'
p2159
sI2439
S'1548'
p2160
sI2440
S'1548'
p2161
sI2441
S'1548'
p2162
sI2442
S'1548'
p2163
sI2443
S'1548'
p2164
sI2444
S'1548'
p2165
sI2445
S'1548'
p2166
sI2446
S'1548'
p2167
sI2447
S'1548'
p2168
sI2448
S'1548'
p2169
sI2449
S'1548'
p2170
sI2450
S'1548'
p2171
sI2451
S'1548'
p2172
sI2452
S'1548'
p2173
sI2453
S'1548'
p2174
sI2454
S'1548'
p2175
sI2455
S'1548'
p2176
sI2456
S'1548'
p2177
sI2457
S'1548'
p2178
sI2458
S'1548'
p2179
sI2459
S'1548'
p2180
sI2460
S'1548'
p2181
sI2461
S'1548'
p2182
sI2462
S'1548'
p2183
sI2463
S'1548'
p2184
sI2464
S'1548'
p2185
sI2465
S'1548'
p2186
sI2466
S'1548'
p2187
sI2467
S'1548'
p2188
sI2468
S'1548'
p2189
sI2469
S'1548'
p2190
sI2470
S'1548'
p2191
sI2471
S'1548'
p2192
sI2472
S'1548'
p2193
sI2473
S'1548'
p2194
sI2474
S'1548'
p2195
sI2475
S'1548'
p2196
sI2476
S'1548'
p2197
sI2477
S'1548'
p2198
sI2478
S'1548'
p2199
sI2479
S'1548'
p2200
sI2480
S'1548'
p2201
sI2481
S'1530'
p2202
sI2482
S'1568'
p2203
sI2483
S'1548'
p2204
sI2484
S'1548'
p2205
sI2485
S'1548'
p2206
sI2486
S'1548'
p2207
sI2487
S'1548'
p2208
sI2488
S'1548'
p2209
sI2489
S'1548'
p2210
sI2490
S'1548'
p2211
sI2491
S'1548'
p2212
sI2492
S'1548'
p2213
sI2493
S'1548'
p2214
sI2494
S'1548'
p2215
sI2495
S'1548'
p2216
sI2496
S'1548'
p2217
sI2497
S'1548'
p2218
sI2498
S'1548'
p2219
sI2499
S'1548'
p2220
sI2500
S'1548'
p2221
sI2501
S'1548'
p2222
sI2502
S'1548'
p2223
sI2503
S'1548'
p2224
sI2504
S'1548'
p2225
sI2505
S'1548'
p2226
sI2506
S'1548'
p2227
sI2507
S'1548'
p2228
sI2508
S'1548'
p2229
sI2509
S'1548'
p2230
sI2510
S'1548'
p2231
sI2511
S'1548'
p2232
sI2512
S'1548'
p2233
sI2513
S'1548'
p2234
sI2514
S'1548'
p2235
sI2515
S'1548'
p2236
sI2516
S'1548'
p2237
sI2517
S'1548'
p2238
sI2518
S'1548'
p2239
sI2519
S'1548'
p2240
sI2520
S'1548'
p2241
sI2521
S'1548'
p2242
sI2522
S'1548'
p2243
sI2523
S'1548'
p2244
sI2524
S'1548'
p2245
sI2525
S'1548'
p2246
sI2526
S'1548'
p2247
sI2527
S'1548'
p2248
sI2528
S'1548'
p2249
sI2529
S'1548'
p2250
sI2530
S'1548'
p2251
sI2531
S'1548'
p2252
sI2532
S'1548'
p2253
sI2533
S'1548'
p2254
sI2534
S'1548'
p2255
sI2535
S'1548'
p2256
sI2536
S'1548'
p2257
sI2537
S'1548'
p2258
sI2538
S'1530'
p2259
sI2539
S'1568'
p2260
sI2540
S'1548'
p2261
sI2541
S'1548'
p2262
sI2542
S'1548'
p2263
sI2543
S'1548'
p2264
sI2544
S'1548'
p2265
sI2545
S'1548'
p2266
sI2546
S'1548'
p2267
sI2547
S'1548'
p2268
sI2548
S'1548'
p2269
sI2549
S'1548'
p2270
sI2550
S'1548'
p2271
sI2551
S'1548'
p2272
sI2552
S'1548'
p2273
sI2553
S'1548'
p2274
sI2554
S'1548'
p2275
sI2555
S'1548'
p2276
sI2556
S'1548'
p2277
sI2557
S'1548'
p2278
sI2558
S'1548'
p2279
sI2559
S'1548'
p2280
sI2560
S'1548'
p2281
sI2561
S'1548'
p2282
sI2562
S'1548'
p2283
sI2563
S'1548'
p2284
sI2564
S'1548'
p2285
sI2565
S'1548'
p2286
sI2566
S'1548'
p2287
sI2567
S'1548'
p2288
sI2568
S'1548'
p2289
sI2569
S'1548'
p2290
sI2570
S'1548'
p2291
sI2571
S'1548'
p2292
sI2572
S'1548'
p2293
sI2573
S'1548'
p2294
sI2574
S'1548'
p2295
sI2575
S'1548'
p2296
sI2576
S'1548'
p2297
sI2577
S'1548'
p2298
sI2578
S'1548'
p2299
sI2579
S'1548'
p2300
sI2580
S'1548'
p2301
sI2581
S'1548'
p2302
sI2582
S'1548'
p2303
sI2583
S'1548'
p2304
sI2584
S'1548'
p2305
sI2585
S'1548'
p2306
sI2586
S'1548'
p2307
sI2587
S'1548'
p2308
sI2588
S'1548'
p2309
sI2589
S'1548'
p2310
sI2590
S'1548'
p2311
sI2591
S'1548'
p2312
sI2592
S'1548'
p2313
sI2593
S'1548'
p2314
sI2594
S'1548'
p2315
sI2595
S'1530'
p2316
sI2596
S'1568'
p2317
sI2597
S'1548'
p2318
sI2598
S'1548'
p2319
sI2599
S'1548'
p2320
sI2600
S'1548'
p2321
sI2601
S'1548'
p2322
sI2602
S'1548'
p2323
sI2603
S'1548'
p2324
sI2604
S'1548'
p2325
sI2605
S'1548'
p2326
sI2606
S'1548'
p2327
sI2607
S'1548'
p2328
sI2608
S'1548'
p2329
sI2609
S'1548'
p2330
sI2610
S'1548'
p2331
sI2611
S'1548'
p2332
sI2612
S'1548'
p2333
sI2613
S'1548'
p2334
sI2614
S'1548'
p2335
sI2615
S'1548'
p2336
sI2616
S'1548'
p2337
sI2617
S'1548'
p2338
sI2618
S'1548'
p2339
sI2619
S'1548'
p2340
sI2620
S'1548'
p2341
sI2621
S'1548'
p2342
sI2622
S'1548'
p2343
sI2623
S'1548'
p2344
sI2624
S'1548'
p2345
sI2625
S'1548'
p2346
sI2626
S'1548'
p2347
sI2627
S'1548'
p2348
sI2628
S'1548'
p2349
sI2629
S'1548'
p2350
sI2630
S'1548'
p2351
sI2631
S'1548'
p2352
sI2632
S'1548'
p2353
sI2633
S'1548'
p2354
sI2634
S'1548'
p2355
sI2635
S'1548'
p2356
sI2636
S'1548'
p2357
sI2637
S'1548'
p2358
sI2638
S'1548'
p2359
sI2639
S'1548'
p2360
sI2640
S'1548'
p2361
sI2641
S'1548'
p2362
sI2642
S'1548'
p2363
sI2643
S'1548'
p2364
sI2644
S'1548'
p2365
sI2645
S'1548'
p2366
sI2646
S'1548'
p2367
sI2647
S'1548'
p2368
sI2648
S'1548'
p2369
sI2649
S'1548'
p2370
sI2650
S'1548'
p2371
sI2651
S'1548'
p2372
sI2652
S'1530'
p2373
sI2653
S'1568'
p2374
sI2654
S'1548'
p2375
sI2655
S'1548'
p2376
sI2656
S'1548'
p2377
sI2657
S'1548'
p2378
sI2658
S'1548'
p2379
sI2659
S'1548'
p2380
sI2660
S'1548'
p2381
sI2661
S'1548'
p2382
sI2662
S'1548'
p2383
sI2663
S'1548'
p2384
sI2664
S'1548'
p2385
sI2665
S'1548'
p2386
sI2666
S'1548'
p2387
sI2667
S'1548'
p2388
sI2668
S'1548'
p2389
sI2669
S'1548'
p2390
sI2670
S'1548'
p2391
sI2671
S'1548'
p2392
sI2672
S'1548'
p2393
sI2673
S'1548'
p2394
sI2674
S'1548'
p2395
sI2675
S'1548'
p2396
sI2676
S'1548'
p2397
sI2677
S'1548'
p2398
sI2678
S'1548'
p2399
sI2679
S'1548'
p2400
sI2680
S'1548'
p2401
sI2681
S'1548'
p2402
sI2682
S'1548'
p2403
sI2683
S'1548'
p2404
sI2684
S'1548'
p2405
sI2685
S'1548'
p2406
sI2686
S'1548'
p2407
sI2687
S'1548'
p2408
sI2688
S'1548'
p2409
sI2689
S'1548'
p2410
sI2690
S'1548'
p2411
sI2691
S'1548'
p2412
sI2692
S'1548'
p2413
sI2693
S'1548'
p2414
sI2694
S'1548'
p2415
sI2695
S'1548'
p2416
sI2696
S'1548'
p2417
sI2697
S'1548'
p2418
sI2698
S'1548'
p2419
sI2699
S'1548'
p2420
sI2700
S'1548'
p2421
sI2701
S'1548'
p2422
sI2702
S'1548'
p2423
sI2703
S'1548'
p2424
sI2704
S'1548'
p2425
sI2705
S'1548'
p2426
sI2706
S'1548'
p2427
sI2707
S'1548'
p2428
sI2708
S'1548'
p2429
sI2709
S'1530'
p2430
sI2710
S'1568'
p2431
sI2711
S'1548'
p2432
sI2712
S'1548'
p2433
sI2713
S'1548'
p2434
sI2714
S'1548'
p2435
sI2715
S'1548'
p2436
sI2716
S'1548'
p2437
sI2717
S'1548'
p2438
sI2718
S'1548'
p2439
sI2719
S'1548'
p2440
sI2720
S'1548'
p2441
sI2721
S'1548'
p2442
sI2722
S'1548'
p2443
sI2723
S'1548'
p2444
sI2724
S'1548'
p2445
sI2725
S'1548'
p2446
sI2726
S'1548'
p2447
sI2727
S'1548'
p2448
sI2728
S'1548'
p2449
sI2729
S'1548'
p2450
sI2730
S'1548'
p2451
sI2731
S'1548'
p2452
sI2732
S'1548'
p2453
sI2733
S'1548'
p2454
sI2734
S'1548'
p2455
sI2735
S'1548'
p2456
sI2736
S'1548'
p2457
sI2737
S'1548'
p2458
sI2738
S'1548'
p2459
sI2739
S'1548'
p2460
sI2740
S'1548'
p2461
sI2741
S'1548'
p2462
sI2742
S'1548'
p2463
sI2743
S'1548'
p2464
sI2744
S'1548'
p2465
sI2745
S'1548'
p2466
sI2746
S'1548'
p2467
sI2747
S'1548'
p2468
sI2748
S'1548'
p2469
sI2749
S'1548'
p2470
sI2750
S'1548'
p2471
sI2751
S'1548'
p2472
sI2752
S'1548'
p2473
sI2753
S'1548'
p2474
sI2754
S'1548'
p2475
sI2755
S'1548'
p2476
sI2756
S'1548'
p2477
sI2757
S'1548'
p2478
sI2758
S'1548'
p2479
sI2759
S'1548'
p2480
sI2760
S'1548'
p2481
sI2761
S'1548'
p2482
sI2762
S'1548'
p2483
sI2763
S'1548'
p2484
sI2764
S'1548'
p2485
sI2765
S'1548'
p2486
sI2766
S'1530'
p2487
sI2767
S'1568'
p2488
sI2768
S'1548'
p2489
sI2769
S'1548'
p2490
sI2770
S'1548'
p2491
sI2771
S'1548'
p2492
sI2772
S'1548'
p2493
sI2773
S'1548'
p2494
sI2774
S'1548'
p2495
sI2775
S'1548'
p2496
sI2776
S'1548'
p2497
sI2777
S'1548'
p2498
sI2778
S'1548'
p2499
sI2779
S'1548'
p2500
sI2780
S'1548'
p2501
sI2781
S'1548'
p2502
sI2782
S'1548'
p2503
sI2783
S'1548'
p2504
sI2784
S'1548'
p2505
sI2785
S'1548'
p2506
sI2786
S'1548'
p2507
sI2787
S'1548'
p2508
sI2788
S'1548'
p2509
sI2789
S'1548'
p2510
sI2790
S'1548'
p2511
sI2791
S'1548'
p2512
sI2792
S'1548'
p2513
sI2793
S'1548'
p2514
sI2794
S'1548'
p2515
sI2795
S'1548'
p2516
sI2796
S'1548'
p2517
sI2797
S'1548'
p2518
sI2798
S'1548'
p2519
sI2799
S'1548'
p2520
sI2800
S'1548'
p2521
sI2801
S'1548'
p2522
sI2802
S'1548'
p2523
sI2803
S'1548'
p2524
sI2804
S'1548'
p2525
sI2805
S'1548'
p2526
sI2806
S'1548'
p2527
sI2807
S'1548'
p2528
sI2808
S'1548'
p2529
sI2809
S'1548'
p2530
sI2810
S'1548'
p2531
sI2811
S'1548'
p2532
sI2812
S'1548'
p2533
sI2813
S'1548'
p2534
sI2814
S'1548'
p2535
sI2815
S'1548'
p2536
sI2816
S'1548'
p2537
sI2817
S'1548'
p2538
sI2818
S'1548'
p2539
sI2819
S'1548'
p2540
sI2820
S'1548'
p2541
sI2821
S'1548'
p2542
sI2822
S'1548'
p2543
sI2823
S'1530'
p2544
sI2824
S'1568'
p2545
sI2825
S'1548'
p2546
sI2826
S'1548'
p2547
sI2827
S'1548'
p2548
sI2828
S'1548'
p2549
sI2829
S'1548'
p2550
sI2830
S'1548'
p2551
sI2831
S'1548'
p2552
sI2832
S'1548'
p2553
sI2833
S'1548'
p2554
sI2834
S'1548'
p2555
sI2835
S'1548'
p2556
sI2836
S'1548'
p2557
sI2837
S'1548'
p2558
sI2838
S'1548'
p2559
sI2839
S'1548'
p2560
sI2840
S'1548'
p2561
sI2841
S'1548'
p2562
sI2842
S'1548'
p2563
sI2843
S'1548'
p2564
sI2844
S'1548'
p2565
sI2845
S'1548'
p2566
sI2846
S'1548'
p2567
sI2847
S'1548'
p2568
sI2848
S'1548'
p2569
sI2849
S'1548'
p2570
sI2850
S'1548'
p2571
sI2851
S'1548'
p2572
sI2852
S'1548'
p2573
sI2853
S'1548'
p2574
sI2854
S'1548'
p2575
sI2855
S'1548'
p2576
sI2856
S'1548'
p2577
sI2857
S'1548'
p2578
sI2858
S'1548'
p2579
sI2859
S'1548'
p2580
sI2860
S'1548'
p2581
sI2861
S'1548'
p2582
sI2862
S'1548'
p2583
sI2863
S'1548'
p2584
sI2864
S'1548'
p2585
sI2865
S'1548'
p2586
sI2866
S'1548'
p2587
sI2867
S'1548'
p2588
sI2868
S'1548'
p2589
sI2869
S'1548'
p2590
sI2870
S'1548'
p2591
sI2871
S'1548'
p2592
sI2872
S'1548'
p2593
sI2873
S'1548'
p2594
sI2874
S'1548'
p2595
sI2875
S'1548'
p2596
sI2876
S'1548'
p2597
sI2877
S'1548'
p2598
sI2878
S'1548'
p2599
sI2879
S'1548'
p2600
sI2880
S'1530'
p2601
sI2881
S'1568'
p2602
sI2882
S'1548'
p2603
sI2883
S'1548'
p2604
sI2884
S'1548'
p2605
sI2885
S'1548'
p2606
sI2886
S'1548'
p2607
sI2887
S'1548'
p2608
sI2888
S'1548'
p2609
sI2889
S'1548'
p2610
sI2890
S'1548'
p2611
sI2891
S'1548'
p2612
sI2892
S'1548'
p2613
sI2893
S'1548'
p2614
sI2894
S'1548'
p2615
sI2895
S'1548'
p2616
sI2896
S'1548'
p2617
sI2897
S'1548'
p2618
sI2898
S'1548'
p2619
sI2899
S'1548'
p2620
sI2900
S'1548'
p2621
sI2901
S'1548'
p2622
sI2902
S'1548'
p2623
sI2903
S'1548'
p2624
sI2904
S'1548'
p2625
sI2905
S'1548'
p2626
sI2906
S'1548'
p2627
sI2907
S'1548'
p2628
sI2908
S'1548'
p2629
sI2909
S'1548'
p2630
sI2910
S'1548'
p2631
sI2911
S'1548'
p2632
sI2912
S'1548'
p2633
sI2913
S'1548'
p2634
sI2914
S'1548'
p2635
sI2915
S'1548'
p2636
sI2916
S'1548'
p2637
sI2917
S'1548'
p2638
sI2918
S'1548'
p2639
sI2919
S'1548'
p2640
sI2920
S'1548'
p2641
sI2921
S'1548'
p2642
sI2922
S'1548'
p2643
sI2923
S'1548'
p2644
sI2924
S'1548'
p2645
sI2925
S'1548'
p2646
sI2926
S'1548'
p2647
sI2927
S'1548'
p2648
sI2928
S'1548'
p2649
sI2929
S'1548'
p2650
sI2930
S'1548'
p2651
sI2931
S'1548'
p2652
sI2932
S'1548'
p2653
sI2933
S'1548'
p2654
sI2934
S'1548'
p2655
sI2935
S'1548'
p2656
sI2936
S'1548'
p2657
sI2937
S'1530'
p2658
sI2938
S'1568'
p2659
sI2939
S'1548'
p2660
sI2940
S'1548'
p2661
sI2941
S'1548'
p2662
sI2942
S'1548'
p2663
sI2943
S'1548'
p2664
sI2944
S'1548'
p2665
sI2945
S'1548'
p2666
sI2946
S'1548'
p2667
sI2947
S'1548'
p2668
sI2948
S'1548'
p2669
sI2949
S'1548'
p2670
sI2950
S'1548'
p2671
sI2951
S'1548'
p2672
sI2952
S'1548'
p2673
sI2953
S'1548'
p2674
sI2954
S'1548'
p2675
sI2955
S'1548'
p2676
sI2956
S'1548'
p2677
sI2957
S'1548'
p2678
sI2958
S'1548'
p2679
sI2959
S'1548'
p2680
sI2960
S'1548'
p2681
sI2961
S'1548'
p2682
sI2962
S'1548'
p2683
sI2963
S'1548'
p2684
sI2964
S'1548'
p2685
sI2965
S'1548'
p2686
sI2966
S'1548'
p2687
sI2967
S'1548'
p2688
sI2968
S'1548'
p2689
sI2969
S'1548'
p2690
sI2970
S'1548'
p2691
sI2971
S'1548'
p2692
sI2972
S'1548'
p2693
sI2973
S'1548'
p2694
sI2974
S'1548'
p2695
sI2975
S'1548'
p2696
sI2976
S'1548'
p2697
sI2977
S'1548'
p2698
sI2978
S'1548'
p2699
sI2979
S'1548'
p2700
sI2980
S'1548'
p2701
sI2981
S'1548'
p2702
sI2982
S'1548'
p2703
sI2983
S'1548'
p2704
sI2984
S'1548'
p2705
sI2985
S'1548'
p2706
sI2986
S'1548'
p2707
sI2987
S'1548'
p2708
sI2988
S'1548'
p2709
sI2989
S'1548'
p2710
sI2990
S'1548'
p2711
sI2991
S'1548'
p2712
sI2992
S'1548'
p2713
sI2993
S'1548'
p2714
sI2994
S'1530'
p2715
sI2995
S'1568'
p2716
sI2996
S'1548'
p2717
sI2997
S'1548'
p2718
sI2998
S'1548'
p2719
sI2999
S'1548'
p2720
sI3000
S'1548'
p2721
sI3001
S'1548'
p2722
sI3002
S'1548'
p2723
sI3003
S'1548'
p2724
sI3004
S'1548'
p2725
sI3005
S'1548'
p2726
sI3006
S'1548'
p2727
sI3007
S'1548'
p2728
sI3008
S'1548'
p2729
sI3009
S'1548'
p2730
sI3010
S'1548'
p2731
sI3011
S'1548'
p2732
sI3012
S'1548'
p2733
sI3013
S'1548'
p2734
sI3014
S'1548'
p2735
sI3015
S'1548'
p2736
sI3016
S'1548'
p2737
sI3017
S'1548'
p2738
sI3018
S'1548'
p2739
sI3019
S'1548'
p2740
sI3020
S'1548'
p2741
sI3021
S'1548'
p2742
sI3022
S'1548'
p2743
sI3023
S'1548'
p2744
sI3024
S'1548'
p2745
sI3025
S'1548'
p2746
sI3026
S'1548'
p2747
sI3027
S'1548'
p2748
sI3028
S'1548'
p2749
sI3029
S'1548'
p2750
sI3030
S'1548'
p2751
sI3031
S'1548'
p2752
sI3032
S'1548'
p2753
sI3033
S'1548'
p2754
sI3034
S'1548'
p2755
sI3035
S'1548'
p2756
sI3036
S'1548'
p2757
sI3037
S'1548'
p2758
sI3038
S'1548'
p2759
sI3039
S'1548'
p2760
sI3040
S'1548'
p2761
sI3041
S'1548'
p2762
sI3042
S'1548'
p2763
sI3043
S'1548'
p2764
sI3044
S'1548'
p2765
sI3045
S'1548'
p2766
sI3046
S'1548'
p2767
sI3047
S'1548'
p2768
sI3048
S'1548'
p2769
sI3049
S'1548'
p2770
sI3050
S'1548'
p2771
sI3051
S'1530'
p2772
sI3052
S'1568'
p2773
sI3053
S'1548'
p2774
sI3054
S'1548'
p2775
sI3055
S'1548'
p2776
sI3056
S'1548'
p2777
sI3057
S'1548'
p2778
sI3058
S'1548'
p2779
sI3059
S'1548'
p2780
sI3060
S'1548'
p2781
sI3061
S'1548'
p2782
sI3062
S'1548'
p2783
sI3063
S'1548'
p2784
sI3064
S'1548'
p2785
sI3065
S'1548'
p2786
sI3066
S'1548'
p2787
sI3067
S'1548'
p2788
sI3068
S'1548'
p2789
sI3069
S'1548'
p2790
sI3070
S'1548'
p2791
sI3071
S'1548'
p2792
sI3072
S'1548'
p2793
sI3073
S'1548'
p2794
sI3074
S'1548'
p2795
sI3075
S'1548'
p2796
sI3076
S'1548'
p2797
sI3077
S'1548'
p2798
sI3078
S'1548'
p2799
sI3079
S'1548'
p2800
sI3080
S'1548'
p2801
sI3081
S'1548'
p2802
sI3082
S'1548'
p2803
sI3083
S'1548'
p2804
sI3084
S'1548'
p2805
sI3085
S'1548'
p2806
sI3086
S'1548'
p2807
sI3087
S'1548'
p2808
sI3088
S'1548'
p2809
sI3089
S'1548'
p2810
sI3090
S'1548'
p2811
sI3091
S'1548'
p2812
sI3092
S'1548'
p2813
sI3093
S'1548'
p2814
sI3094
S'1548'
p2815
sI3095
S'1548'
p2816
sI3096
S'1548'
p2817
sI3097
S'1548'
p2818
sI3098
S'1548'
p2819
sI3099
S'1548'
p2820
sI3100
S'1548'
p2821
sI3101
S'1548'
p2822
sI3102
S'1548'
p2823
sI3103
S'1548'
p2824
sI3104
S'1548'
p2825
sI3105
S'1548'
p2826
sI3106
S'1548'
p2827
sI3107
S'1548'
p2828
sI3108
S'1530'
p2829
sI3109
S'1568'
p2830
sI3110
S'1548'
p2831
sI3111
S'1548'
p2832
sI3112
S'1548'
p2833
sI3113
S'1548'
p2834
sI3114
S'1548'
p2835
sI3115
S'1548'
p2836
sI3116
S'1548'
p2837
sI3117
S'1548'
p2838
sI3118
S'1548'
p2839
sI3119
S'1548'
p2840
sI3120
S'1548'
p2841
sI3121
S'1548'
p2842
sI3122
S'1548'
p2843
sI3123
S'1548'
p2844
sI3124
S'1548'
p2845
sI3125
S'1548'
p2846
sI3126
S'1548'
p2847
sI3127
S'1548'
p2848
sI3128
S'1548'
p2849
sI3129
S'1548'
p2850
sI3130
S'1548'
p2851
sI3131
S'1548'
p2852
sI3132
S'1548'
p2853
sI3133
S'1548'
p2854
sI3134
S'1548'
p2855
sI3135
S'1548'
p2856
sI3136
S'1548'
p2857
sI3137
S'1548'
p2858
sI3138
S'1548'
p2859
sI3139
S'1548'
p2860
sI3140
S'1548'
p2861
sI3141
S'1548'
p2862
sI3142
S'1548'
p2863
sI3143
S'1548'
p2864
sI3144
S'1548'
p2865
sI3145
S'1548'
p2866
sI3146
S'1548'
p2867
sI3147
S'1548'
p2868
sI3148
S'1548'
p2869
sI3149
S'1548'
p2870
sI3150
S'1548'
p2871
sI3151
S'1548'
p2872
sI3152
S'1548'
p2873
sI3153
S'1548'
p2874
sI3154
S'1548'
p2875
sI3155
S'1548'
p2876
sI3156
S'1548'
p2877
sI3157
S'1548'
p2878
sI3158
S'1548'
p2879
sI3159
S'1548'
p2880
sI3160
S'1548'
p2881
sI3161
S'1548'
p2882
sI3162
S'1548'
p2883
sI3163
S'1548'
p2884
sI3164
S'1548'
p2885
sI3165
S'1530'
p2886
sI3166
S'1568'
p2887
sI3167
S'1548'
p2888
sI3168
S'1548'
p2889
sI3169
S'1548'
p2890
sI3170
S'1548'
p2891
sI3171
S'1548'
p2892
sI3172
S'1548'
p2893
sI3173
S'1548'
p2894
sI3174
S'1548'
p2895
sI3175
S'1548'
p2896
sI3176
S'1548'
p2897
sI3177
S'1548'
p2898
sI3178
S'1548'
p2899
sI3179
S'1548'
p2900
sI3180
S'1548'
p2901
sI3181
S'1548'
p2902
sI3182
S'1548'
p2903
sI3183
S'1548'
p2904
sI3184
S'1548'
p2905
sI3185
S'1548'
p2906
sI3186
S'1548'
p2907
sI3187
S'1548'
p2908
sI3188
S'1548'
p2909
sI3189
S'1548'
p2910
sI3190
S'1548'
p2911
sI3191
S'1548'
p2912
sI3192
S'1548'
p2913
sI3193
S'1548'
p2914
sI3194
S'1548'
p2915
sI3195
S'1548'
p2916
sI3196
S'1548'
p2917
sI3197
S'1548'
p2918
sI3198
S'1548'
p2919
sI3199
S'1548'
p2920
sI3200
S'1548'
p2921
sI3201
S'1548'
p2922
sI3202
S'1548'
p2923
sI3203
S'1548'
p2924
sI3204
S'1548'
p2925
sI3205
S'1548'
p2926
sI3206
S'1548'
p2927
sI3207
S'1548'
p2928
sI3208
S'1548'
p2929
sI3209
S'1548'
p2930
sI3210
S'1548'
p2931
sI3211
S'1548'
p2932
sI3212
S'1548'
p2933
sI3213
S'1548'
p2934
sI3214
S'1548'
p2935
sI3215
S'1548'
p2936
sI3216
S'1548'
p2937
sI3217
S'1548'
p2938
sI3218
S'1548'
p2939
sI3219
S'1548'
p2940
sI3220
S'1548'
p2941
sI3221
S'1548'
p2942
sI3222
S'1530'
p2943
sI3223
S'1568'
p2944
sI3224
S'1548'
p2945
sI3225
S'1548'
p2946
sI3226
S'1548'
p2947
sI3227
S'1548'
p2948
sI3228
S'1548'
p2949
sI3229
S'1548'
p2950
sI3230
S'1548'
p2951
sI3231
S'1548'
p2952
sI3232
S'1548'
p2953
sI3233
S'1548'
p2954
sI3234
S'1548'
p2955
sI3235
S'1548'
p2956
sI3236
S'1548'
p2957
sI3237
S'1548'
p2958
sI3238
S'1548'
p2959
sI3239
S'1548'
p2960
sI3240
S'1548'
p2961
sI3241
S'1548'
p2962
sI3242
S'1548'
p2963
sI3243
S'1548'
p2964
sI3244
S'1548'
p2965
sI3245
S'1548'
p2966
sI3246
S'1548'
p2967
sI3247
S'1548'
p2968
sI3248
S'1548'
p2969
sI3249
S'1548'
p2970
sI3250
S'1548'
p2971
sI3251
S'1548'
p2972
sI3252
S'1548'
p2973
sI3253
S'1548'
p2974
sI3254
S'1548'
p2975
sI3255
S'1548'
p2976
sI3256
S'1548'
p2977
sI3257
S'1548'
p2978
sI3258
S'1548'
p2979
sI3259
S'1548'
p2980
sI3260
S'1548'
p2981
sI3261
S'1548'
p2982
sI3262
S'1548'
p2983
sI3263
S'1548'
p2984
sI3264
S'1548'
p2985
sI3265
S'1548'
p2986
sI3266
S'1548'
p2987
sI3267
S'1548'
p2988
sI3268
S'1548'
p2989
sI3269
S'1548'
p2990
sI3270
S'1548'
p2991
sI3271
S'1548'
p2992
sI3272
S'1548'
p2993
sI3273
S'1548'
p2994
sI3274
S'1548'
p2995
sI3275
S'1548'
p2996
sI3276
S'1548'
p2997
sI3277
S'1548'
p2998
sI3278
S'1548'
p2999
sI3279
S'1530'
p3000
sI3280
S'1568'
p3001
sI3281
S'1548'
p3002
sI3282
S'1548'
p3003
sI3283
S'1548'
p3004
sI3284
S'1548'
p3005
sI3285
S'1548'
p3006
sI3286
S'1548'
p3007
sI3287
S'1548'
p3008
sI3288
S'1548'
p3009
sI3289
S'1548'
p3010
sI3290
S'1548'
p3011
sI3291
S'1548'
p3012
sI3292
S'1548'
p3013
sI3293
S'1548'
p3014
sI3294
S'1548'
p3015
sI3295
S'1548'
p3016
sI3296
S'1548'
p3017
sI3297
S'1548'
p3018
sI3298
S'1548'
p3019
sI3299
S'1548'
p3020
sI3300
S'1548'
p3021
sI3301
S'1548'
p3022
sI3302
S'1548'
p3023
sI3303
S'1548'
p3024
sI3304
S'1548'
p3025
sI3305
S'1548'
p3026
sI3306
S'1548'
p3027
sI3307
S'1548'
p3028
sI3308
S'1548'
p3029
sI3309
S'1548'
p3030
sI3310
S'1548'
p3031
sI3311
S'1548'
p3032
sI3312
S'1548'
p3033
sI3313
S'1548'
p3034
sI3314
S'1548'
p3035
sI3315
S'1548'
p3036
sI3316
S'1548'
p3037
sI3317
S'1548'
p3038
sI3318
S'1548'
p3039
sI3319
S'1548'
p3040
sI3320
S'1548'
p3041
sI3321
S'1548'
p3042
sI3322
S'1548'
p3043
sI3323
S'1548'
p3044
sI3324
S'1548'
p3045
sI3325
S'1548'
p3046
sI3326
S'1548'
p3047
sI3327
S'1548'
p3048
sI3328
S'1548'
p3049
sI3329
S'1548'
p3050
sI3330
S'1548'
p3051
sI3331
S'1548'
p3052
sI3332
S'1548'
p3053
sI3333
S'1548'
p3054
sI3334
S'1548'
p3055
sI3335
S'1548'
p3056
sI3336
S'1530'
p3057
sI3337
S'1568'
p3058
sI3338
S'1548'
p3059
sI3339
S'1548'
p3060
sI3340
S'1548'
p3061
sI3341
S'1548'
p3062
sI3342
S'1548'
p3063
sI3343
S'1548'
p3064
sI3344
S'1548'
p3065
sI3345
S'1548'
p3066
sI3346
S'1548'
p3067
sI3347
S'1548'
p3068
sI3348
S'1548'
p3069
sI3349
S'1548'
p3070
sI3350
S'1548'
p3071
sI3351
S'1548'
p3072
sI3352
S'1548'
p3073
sI3353
S'1548'
p3074
sI3354
S'1548'
p3075
sI3355
S'1548'
p3076
sI3356
S'1548'
p3077
sI3357
S'1548'
p3078
sI3358
S'1548'
p3079
sI3359
S'1548'
p3080
sI3360
S'1548'
p3081
sI3361
S'1548'
p3082
sI3362
S'1548'
p3083
sI3363
S'1548'
p3084
sI3364
S'1548'
p3085
sI3365
S'1548'
p3086
sI3366
S'1548'
p3087
sI3367
S'1548'
p3088
sI3368
S'1548'
p3089
sI3369
S'1548'
p3090
sI3370
S'1548'
p3091
sI3371
S'1548'
p3092
sI3372
S'1548'
p3093
sI3373
S'1548'
p3094
sI3374
S'1548'
p3095
sI3375
S'1548'
p3096
sI3376
S'1548'
p3097
sI3377
S'1548'
p3098
sI3378
S'1548'
p3099
sI3379
S'1548'
p3100
sI3380
S'1548'
p3101
sI3381
S'1548'
p3102
sI3382
S'1548'
p3103
sI3383
S'1548'
p3104
sI3384
S'1548'
p3105
sI3385
S'1548'
p3106
sI3386
S'1548'
p3107
sI3387
S'1548'
p3108
sI3388
S'1548'
p3109
sI3389
S'1548'
p3110
sI3390
S'1548'
p3111
sI3391
S'1548'
p3112
sI3392
S'1548'
p3113
sI3393
S'1530'
p3114
sI3394
S'1568'
p3115
sI3395
S'1548'
p3116
sI3396
S'1548'
p3117
sI3397
S'1548'
p3118
sI3398
S'1548'
p3119
sI3399
S'1548'
p3120
sI3400
S'1548'
p3121
sI3401
S'1548'
p3122
sI3402
S'1548'
p3123
sI3403
S'1548'
p3124
sI3404
S'1548'
p3125
sI3405
S'1548'
p3126
sI3406
S'1548'
p3127
sI3407
S'1548'
p3128
sI3408
S'1548'
p3129
sI3409
S'1548'
p3130
sI3410
S'1548'
p3131
sI3411
S'1548'
p3132
sI3412
S'1548'
p3133
sI3413
S'1548'
p3134
sI3414
S'1548'
p3135
sI3415
S'1548'
p3136
sI3416
S'1548'
p3137
sI3417
S'1548'
p3138
sI3418
S'1548'
p3139
sI3419
S'1548'
p3140
sI3420
S'1548'
p3141
sI3421
S'1548'
p3142
sI3422
S'1548'
p3143
sI3423
S'1548'
p3144
sI3424
S'1548'
p3145
sI3425
S'1548'
p3146
sI3426
S'1548'
p3147
sI3427
S'1548'
p3148
sI3428
S'1548'
p3149
sI3429
S'1548'
p3150
sI3430
S'1548'
p3151
sI3431
S'1548'
p3152
sI3432
S'1548'
p3153
sI3433
S'1548'
p3154
sI3434
S'1548'
p3155
sI3435
S'1548'
p3156
sI3436
S'1548'
p3157
sI3437
S'1548'
p3158
sI3438
S'1548'
p3159
sI3439
S'1548'
p3160
sI3440
S'1548'
p3161
sI3441
S'1548'
p3162
sI3442
S'1548'
p3163
sI3443
S'1548'
p3164
sI3444
S'1548'
p3165
sI3445
S'1548'
p3166
sI3446
S'1548'
p3167
sI3447
S'1548'
p3168
sI3448
S'1548'
p3169
sI3449
S'1548'
p3170
sI3450
S'1530'
p3171
sI3451
S'1568'
p3172
sI3452
S'1548'
p3173
sI3453
S'1548'
p3174
sI3454
S'1548'
p3175
sI3455
S'1548'
p3176
sI3456
S'1548'
p3177
sI3457
S'1548'
p3178
sI3458
S'1548'
p3179
sI3459
S'1548'
p3180
sI3460
S'1548'
p3181
sI3461
S'1548'
p3182
sI3462
S'1548'
p3183
sI3463
S'1548'
p3184
sI3464
S'1548'
p3185
sI3465
S'1548'
p3186
sI3466
S'1548'
p3187
sI3467
S'1548'
p3188
sI3468
S'1548'
p3189
sI3469
S'1548'
p3190
sI3470
S'1548'
p3191
sI3471
S'1548'
p3192
sI3472
S'1548'
p3193
sI3473
S'1548'
p3194
sI3474
S'1548'
p3195
sI3475
S'1548'
p3196
sI3476
S'1548'
p3197
sI3477
S'1548'
p3198
sI3478
S'1548'
p3199
sI3479
S'1548'
p3200
sI3480
S'1548'
p3201
sI3481
S'1548'
p3202
sI3482
S'1548'
p3203
sI3483
S'1548'
p3204
sI3484
S'1548'
p3205
sI3485
S'1548'
p3206
sI3486
S'1548'
p3207
sI3487
S'1548'
p3208
sI3488
S'1548'
p3209
sI3489
S'1548'
p3210
sI3490
S'1548'
p3211
sI3491
S'1548'
p3212
sI3492
S'1548'
p3213
sI3493
S'1548'
p3214
sI3494
S'1548'
p3215
sI3495
S'1548'
p3216
sI3496
S'1548'
p3217
sI3497
S'1548'
p3218
sI3498
S'1548'
p3219
sI3499
S'1548'
p3220
sI3500
S'1548'
p3221
sI3501
S'1548'
p3222
sI3502
S'1548'
p3223
sI3503
S'1548'
p3224
sI3504
S'1548'
p3225
sI3505
S'1548'
p3226
sI3506
S'1548'
p3227
sI3507
S'1530'
p3228
sI3508
S'1568'
p3229
sI3509
S'1548'
p3230
sI3510
S'1548'
p3231
sI3511
S'1548'
p3232
sI3512
S'1548'
p3233
sI3513
S'1548'
p3234
sI3514
S'1548'
p3235
sI3515
S'1548'
p3236
sI3516
S'1548'
p3237
sI3517
S'1548'
p3238
sI3518
S'1548'
p3239
sI3519
S'1548'
p3240
sI3520
S'1548'
p3241
sI3521
S'1548'
p3242
sI3522
S'1548'
p3243
sI3523
S'1548'
p3244
sI3524
S'1548'
p3245
sI3525
S'1548'
p3246
sI3526
S'1548'
p3247
sI3527
S'1548'
p3248
sI3528
S'1548'
p3249
sI3529
S'1548'
p3250
sI3530
S'1548'
p3251
sI3531
S'1548'
p3252
sI3532
S'1548'
p3253
sI3533
S'1548'
p3254
sI3534
S'1548'
p3255
sI3535
S'1548'
p3256
sI3536
S'1548'
p3257
sI3537
S'1548'
p3258
sI3538
S'1548'
p3259
sI3539
S'1548'
p3260
sI3540
S'1548'
p3261
sI3541
S'1548'
p3262
sI3542
S'1548'
p3263
sI3543
S'1548'
p3264
sI3544
S'1548'
p3265
sI3545
S'1548'
p3266
sI3546
S'1548'
p3267
sI3547
S'1548'
p3268
sI3548
S'1548'
p3269
sI3549
S'1548'
p3270
sI3550
S'1548'
p3271
sI3551
S'1548'
p3272
sI3552
S'1548'
p3273
sI3553
S'1548'
p3274
sI3554
S'1548'
p3275
sI3555
S'1548'
p3276
sI3556
S'1548'
p3277
sI3557
S'1548'
p3278
sI3558
S'1548'
p3279
sI3559
S'1548'
p3280
sI3560
S'1548'
p3281
sI3561
S'1548'
p3282
sI3562
S'1548'
p3283
sI3563
S'1548'
p3284
sI3564
S'1530'
p3285
sI3565
S'1568'
p3286
sI3566
S'1548'
p3287
sI3567
S'1548'
p3288
sI3568
S'1548'
p3289
sI3569
S'1548'
p3290
sI3570
S'1548'
p3291
sI3571
S'1548'
p3292
sI3572
S'1548'
p3293
sI3573
S'1548'
p3294
sI3574
S'1548'
p3295
sI3575
S'1548'
p3296
sI3576
S'1548'
p3297
sI3577
S'1548'
p3298
sI3578
S'1548'
p3299
sI3579
S'1548'
p3300
sI3580
S'1548'
p3301
sI3581
S'1548'
p3302
sI3582
S'1548'
p3303
sI3583
S'1548'
p3304
sI3584
S'1548'
p3305
sI3585
S'1548'
p3306
sI3586
S'1548'
p3307
sI3587
S'1548'
p3308
sI3588
S'1548'
p3309
sI3589
S'1548'
p3310
sI3590
S'1548'
p3311
sI3591
S'1548'
p3312
sI3592
S'1548'
p3313
sI3593
S'1548'
p3314
sI3594
S'1548'
p3315
sI3595
S'1548'
p3316
sI3596
S'1548'
p3317
sI3597
S'1548'
p3318
sI3598
S'1548'
p3319
sI3599
S'1548'
p3320
sI3600
S'1548'
p3321
sI3601
S'1548'
p3322
sI3602
S'1548'
p3323
sI3603
S'1548'
p3324
sI3604
S'1548'
p3325
sI3605
S'1548'
p3326
sI3606
S'1548'
p3327
sI3607
S'1548'
p3328
sI3608
S'1548'
p3329
sI3609
S'1548'
p3330
sI3610
S'1548'
p3331
sI3611
S'1548'
p3332
sI3612
S'1548'
p3333
sI3613
S'1548'
p3334
sI3614
S'1548'
p3335
sI3615
S'1548'
p3336
sI3616
S'1548'
p3337
sI3617
S'1548'
p3338
sI3618
S'1548'
p3339
sI3619
S'1548'
p3340
sI3620
S'1548'
p3341
sI3621
S'1530'
p3342
sI3622
S'1799'
p3343
sI3623
S'1530'
p3344
sI3624
S'1530'
p3345
sI3625
S'1530'
p3346
sI3626
S'1530'
p3347
sI3627
S'1530'
p3348
sI3628
S'1530'
p3349
sI3629
S'1530'
p3350
sI3630
S'1530'
p3351
sI3631
S'1530'
p3352
sI3632
S'1530'
p3353
sI3633
S'1530'
p3354
sI3634
S'1530'
p3355
sI3635
S'1530'
p3356
sI3636
S'1530'
p3357
sI3637
S'1530'
p3358
sI3638
S'1530'
p3359
sI3639
S'1530'
p3360
sI3640
S'1530'
p3361
sI3641
S'1530'
p3362
sI3642
S'1530'
p3363
sI3643
S'1530'
p3364
sI3644
S'1530'
p3365
sI3645
S'1530'
p3366
sI3646
S'1530'
p3367
sI3647
S'1530'
p3368
sI3648
S'1530'
p3369
sI3649
S'1530'
p3370
sI3650
S'1530'
p3371
sI3651
S'1530'
p3372
sI3652
S'1530'
p3373
sI3653
S'1530'
p3374
sI3654
S'1530'
p3375
sI3655
S'1530'
p3376
sI3656
S'1530'
p3377
sI3657
S'1530'
p3378
sI3658
S'1530'
p3379
sI3659
S'1530'
p3380
sI3660
S'1530'
p3381
sI3661
S'1530'
p3382
sI3662
S'1530'
p3383
sI3663
S'1530'
p3384
sI3664
S'1530'
p3385
sI3665
S'1530'
p3386
sI3666
S'1530'
p3387
sI3667
S'1530'
p3388
sI3668
S'1530'
p3389
sI3669
S'1530'
p3390
sI3670
S'1530'
p3391
sI3671
S'1530'
p3392
sI3672
S'1530'
p3393
sI3673
S'1530'
p3394
sI3674
S'1530'
p3395
sI3675
S'1530'
p3396
sI3676
S'1530'
p3397
sI3677
S'1530'
p3398
sI3678
S'1530'
p3399
sI3679
S'1530'
p3400
sI3680
S'1530'
p3401
sI3681
S'1530'
p3402
sI3682
S'1530'
p3403
sI3683
S'1530'
p3404
sI3684
S'1530'
p3405
sI3685
S'1530'
p3406
sI3686
S'1530'
p3407
sI3687
S'1530'
p3408
sI3688
S'1530'
p3409
sI3689
S'1530'
p3410
sI3690
S'1530'
p3411
sI3691
S'1530'
p3412
sI3692
S'1530'
p3413
sI3693
S'1530'
p3414
sI3694
S'1530'
p3415
sI3695
S'1530'
p3416
sI3696
S'1530'
p3417
sI3697
S'1530'
p3418
sI3698
S'1530'
p3419
sI3699
S'1530'
p3420
sI3700
S'1530'
p3421
sI3701
S'1530'
p3422
sI3702
S'1530'
p3423
sI3703
S'1530'
p3424
sI3704
S'1530'
p3425
sI3705
S'1530'
p3426
sI3706
S'1530'
p3427
sI3707
S'1530'
p3428
sI3708
S'1530'
p3429
sI3709
S'1530'
p3430
sI3710
S'1530'
p3431
sI3711
S'1530'
p3432
sI3712
S'1530'
p3433
sI3713
S'1530'
p3434
sI3714
S'1530'
p3435
sI3715
S'1530'
p3436
sI3716
S'1530'
p3437
sI3717
S'1530'
p3438
sI3718
S'1530'
p3439
sI3719
S'1530'
p3440
sI3720
S'1530'
p3441
sI3721
S'1530'
p3442
sI3722
S'1530'
p3443
sI3723
S'1530'
p3444
sI3724
S'1530'
p3445
sI3725
S'1530'
p3446
sI3726
S'1530'
p3447
sI3727
S'1530'
p3448
sI3728
S'1530'
p3449
sI3729
S'1530'
p3450
sI3730
S'1530'
p3451
sI3731
S'1530'
p3452
sI3732
S'1530'
p3453
sI3733
S'1530'
p3454
sI3734
S'1530'
p3455
sI3735
S'1530'
p3456
sI3736
S'1530'
p3457
sI3737
S'1530'
p3458
sI3738
S'1530'
p3459
sI3739
S'1530'
p3460
sI3740
S'1530'
p3461
sI3741
S'1530'
p3462
sI3742
S'1530'
p3463
sI3743
S'1530'
p3464
sI3744
S'1530'
p3465
sI3745
S'1530'
p3466
sI3746
S'1530'
p3467
sI3747
S'1530'
p3468
sI3748
S'1530'
p3469
sI3749
S'1530'
p3470
sI3756
S'1530'
p3471
sI3757
S'1825'
p3472
sI3758
S'1574'
p3473
sI3759
S'1627'
p3474
sI3760
S'1621'
p3475
sI3761
S'1564'
p3476
sI3762
S'1518'
p3477
sI3763
S'1530'
p3478
sI3764
S'1530'
p3479
sI3765
S'1590'
p3480
sI3766
S'1530'
p3481
sI3767
S'1530'
p3482
sI3768
S'1590'
p3483
sI3769
S'1530'
p3484
sI3770
S'1530'
p3485
sI3771
S'1530'
p3486
sI3772
S'1784'
p3487
sI3773
S'1544'
p3488
sI3774
S'1530'
p3489
sI3775
S'1615'
p3490
sI3776
S'1609'
p3491
sI3777
S'1613'
p3492
sI3778
S'1613'
p3493
sI3779
S'1613'
p3494
sI3782
S'1611'
p3495
sI3783
S'1607'
p3496
sI3785
S'1611'
p3497
sI3787
S'1611'
p3498
sI3788
S'1607'
p3499
sI3789
S'1615'
p3500
sI3790
S'1609'
p3501
sI3791
S'1613'
p3502
sI3794
S'1611'
p3503
sI3795
S'1615'
p3504
sI3796
S'1609'
p3505
sI3797
S'1613'
p3506
sI3798
S'1613'
p3507
sI3799
S'1613'
p3508
sI3802
S'1611'
p3509
sI3804
S'1611'
p3510
sI3805
S'1613'
p3511
sI3815
S'1530'
p3512
sI3816
S'1530'
p3513
sI3817
S'1530'
p3514
sI3818
S'1530'
p3515
sI3819
S'1530'
p3516
sI3820
S'1530'
p3517
sI3821
S'1530'
p3518
sI3822
S'1530'
p3519
sI3823
S'1530'
p3520
sI3824
S'1530'
p3521
sI3825
S'1530'
p3522
sI3826
S'1530'
p3523
sI3827
S'1530'
p3524
sI3828
S'1530'
p3525
sI3829
S'1530'
p3526
sI3830
S'1530'
p3527
sI3831
S'1530'
p3528
sI3832
S'1530'
p3529
sI3833
S'1530'
p3530
sI3834
S'1530'
p3531
sI3835
S'1530'
p3532
sI3836
S'1530'
p3533
sI3837
S'1530'
p3534
sI3838
S'1530'
p3535
sI3839
S'1530'
p3536
sI3840
S'1530'
p3537
sI3841
S'1530'
p3538
sI3842
S'1530'
p3539
sI3843
S'1530'
p3540
sI3844
S'1530'
p3541
sI3845
S'1530'
p3542
sI3846
S'1530'
p3543
sI3847
S'1530'
p3544
sI3848
S'1530'
p3545
sI3849
S'1530'
p3546
sI3850
S'1530'
p3547
sI3851
S'1530'
p3548
sI3852
S'1530'
p3549
sI3853
S'1530'
p3550
sI3854
S'1530'
p3551
sI3855
S'1530'
p3552
sI3856
S'1530'
p3553
sI3857
S'1530'
p3554
sI3858
S'1530'
p3555
sI3859
S'1530'
p3556
sI3860
S'1530'
p3557
sI3861
S'1530'
p3558
sI3862
S'1530'
p3559
sI3863
S'1530'
p3560
sI3864
S'1530'
p3561
sI3865
S'1530'
p3562
sI3866
S'1530'
p3563
sI3867
S'1530'
p3564
sI3868
S'1530'
p3565
sI3869
S'1530'
p3566
sI3870
S'1530'
p3567
sI3871
S'1530'
p3568
sI3872
S'1530'
p3569
sI3873
S'1530'
p3570
sI3874
S'1530'
p3571
sI3875
S'1530'
p3572
sI3876
S'1530'
p3573
sI3877
S'1530'
p3574
sI3878
S'1530'
p3575
sI3879
S'1530'
p3576
sI3880
S'1530'
p3577
sI3881
S'1530'
p3578
sI3882
S'1530'
p3579
sI3883
S'1530'
p3580
sI3884
S'1530'
p3581
sI3885
S'1530'
p3582
sI3886
S'1530'
p3583
sI3887
S'1530'
p3584
sI3888
S'1530'
p3585
sI3889
S'1530'
p3586
sI3890
S'1530'
p3587
sI3891
S'1530'
p3588
sI3892
S'1530'
p3589
sI3893
S'1530'
p3590
sI3894
S'1530'
p3591
sI3895
S'1530'
p3592
sI3896
S'1530'
p3593
sI3897
S'1530'
p3594
sI3898
S'1530'
p3595
sI3899
S'1530'
p3596
sI3900
S'1530'
p3597
sI3901
S'1530'
p3598
sI3902
S'1530'
p3599
sI3903
S'1530'
p3600
sI3904
S'1530'
p3601
sI3905
S'1661'
p3602
sI3906
S'1693'
p3603
sI3914
S'1962'
p3604
sI3917
S'1528'
p3605
sI3918
S'1528'
p3606
sI3919
S'1584'
p3607
sI3920
S'1509'
p3608
sI3921
S'1584'
p3609
sI3922
S'1584'
p3610
sI3923
S'1578'
p3611
sI3924
S'1578'
p3612
sI3925
S'1584'
p3613
sI3926
S'1584'
p3614
sI3927
S'1584'
p3615
sI3928
S'1584'
p3616
sI3929
S'1584'
p3617
sI3930
S'1584'
p3618
sI3931
S'1584'
p3619
sI3932
S'1584'
p3620
sI3933
S'1584'
p3621
sI3934
S'1584'
p3622
sI3935
S'1578'
p3623
sI3936
S'1584'
p3624
sI3937
S'1584'
p3625
sI3938
S'1584'
p3626
sI3939
S'1584'
p3627
sI3940
S'1584'
p3628
sI3941
S'1584'
p3629
sI3942
S'1584'
p3630
sI3943
S'1584'
p3631
sI3944
S'1584'
p3632
sI3945
S'1847'
p3633
sI3946
S'1522'
p3634
sI3947
S'1578'
p3635
sI3948
S'1578'
p3636
sI3949
S'1578'
p3637
sI3950
S'1578'
p3638
sI3951
S'1578'
p3639
sI3952
S'1578'
p3640
sI3953
S'1578'
p3641
sI3954
S'1578'
p3642
sI3955
S'1578'
p3643
sI3956
S'1578'
p3644
sI3957
S'1578'
p3645
sI3958
S'1578'
p3646
sI3959
S'1578'
p3647
sI3960
S'1578'
p3648
sI3961
S'1578'
p3649
sI3962
S'1578'
p3650
sI3963
S'1578'
p3651
sI3964
S'1578'
p3652
sI3965
S'1578'
p3653
sI3966
S'1578'
p3654
sI3967
S'1578'
p3655
sI3968
S'1578'
p3656
sI3969
S'1578'
p3657
sI3970
S'1578'
p3658
sI3971
S'1528'
p3659
sI3972
S'1584'
p3660
sI3973
S'1584'
p3661
sI3974
S'1584'
p3662
sI3975
S'1584'
p3663
sI3976
S'1584'
p3664
sI3977
S'1584'
p3665
sI3978
S'1584'
p3666
sI3979
S'1584'
p3667
sI3980
S'1584'
p3668
sI3981
S'1584'
p3669
sI3982
S'1584'
p3670
sI3983
S'1584'
p3671
sI3984
S'1584'
p3672
sI3985
S'1584'
p3673
sI3986
S'1584'
p3674
sI3987
S'1584'
p3675
sI3988
S'1578'
p3676
sI3989
S'1530'
p3677
sI3990
S'1584'
p3678
sI3991
S'1584'
p3679
sI3992
S'1584'
p3680
sI3993
S'1578'
p3681
sI3994
S'1584'
p3682
sI3995
S'1578'
p3683
sI3996
S'1578'
p3684
sI3997
S'1584'
p3685
sI3998
S'1584'
p3686
sI3999
S'1819'
p3687
sI4000
S'1821'
p3688
sI4001
S'1584'
p3689
sI4002
S'1584'
p3690
sI4003
S'1530'
p3691
sI4004
S'1555'
p3692
sI4005
S'1553'
p3693
sI4006
S'1553'
p3694
sI4007
S'1553'
p3695
sI4008
S'1553'
p3696
sI4009
S'1553'
p3697
sI4010
S'1553'
p3698
sI4011
S'1553'
p3699
sI4012
S'1553'
p3700
sI4013
S'1553'
p3701
sI4014
S'1553'
p3702
sI4015
S'1553'
p3703
sI4016
S'1553'
p3704
sI4017
S'1553'
p3705
sI4018
S'1553'
p3706
sI4019
g1
sI4020
g1
sI4021
g1
sI4022
g1
sI4023
g1
sI4024
g1
sI4025
g1
sI4026
g1
sI4027
g1
sI4028
g1
sI4029
g1
sI4030
g1
sI4031
g1
sI4032
g1
sI4033
g1
sI4034
g1
sI4035
g1
sI4036
g1
sI4037
g1
sI4038
g1
sI4039
g1
sI4040
g1
sI4041
g1
sI4042
g1
sI4043
S'1677'
p3707
sI4044
g1
sI4045
S'1679'
p3708
sI4046
S'1681'
p3709
sI4047
S'1683'
p3710
sI4048
S'1685'
p3711
sI4049
S'1687'
p3712
sI4050
S'1671'
p3713
sI4051
S'1673'
p3714
sI4052
S'1675'
p3715
sI4053
S'1538'
p3716
sI4054
S'1561'
p3717
sI4057
S'1530'
p3718
sI4058
S'1631'
p3719
sI4059
S'1595'
p3720
sI4060
S'1663'
p3721
sI4061
g1
sI4062
S'1538'
p3722
sI4063
S'1561'
p3723
sI4066
S'1530'
p3724
sI4067
S'1631'
p3725
sI4068
S'1595'
p3726
sI4069
S'1663'
p3727
sI4070
g1
sI4071
S'1530'
p3728
sI4072
S'1555'
p3729
sI4073
S'1553'
p3730
sI4074
S'1553'
p3731
sI4075
S'1553'
p3732
sI4076
S'1553'
p3733
sI4077
S'1553'
p3734
sI4078
S'1553'
p3735
sI4079
S'1553'
p3736
sI4080
S'1553'
p3737
sI4081
S'1553'
p3738
sI4082
S'1553'
p3739
sI4083
S'1553'
p3740
sI4084
S'1966'
p3741
sI4085
g1
sI4086
g1
sI4087
g1
sI4088
S'1530'
p3742
sI4089
S'1555'
p3743
sI4090
S'1553'
p3744
sI4091
S'1553'
p3745
sI4092
S'1553'
p3746
sI4093
S'1553'
p3747
sI4094
S'1553'
p3748
sI4095
S'1553'
p3749
sI4096
S'1553'
p3750
sI4097
S'1553'
p3751
sI4098
S'1553'
p3752
sI4099
S'1553'
p3753
sI4100
S'1553'
p3754
sI4101
S'1553'
p3755
sI4102
S'1553'
p3756
sI4103
S'1553'
p3757
sI4104
S'1553'
p3758
sI4105
S'1553'
p3759
sI4106
S'1553'
p3760
sI4107
S'1555'
p3761
sI4108
S'1553'
p3762
sI4109
S'1553'
p3763
sI4110
S'1553'
p3764
sI4111
S'1553'
p3765
sI4112
S'1553'
p3766
sI4113
S'1553'
p3767
sI4114
S'1553'
p3768
sI4115
S'1553'
p3769
sI4116
S'1553'
p3770
sI4117
S'1553'
p3771
sI4118
S'1553'
p3772
sI4119
S'1553'
p3773
sI4120
S'1553'
p3774
sI4121
S'1553'
p3775
sI4122
S'1553'
p3776
sI4123
S'1849'
p3777
sI4124
S'1849'
p3778
sI4125
S'1849'
p3779
sI4126
S'1849'
p3780
sI4127
g1
sI4128
g1
sI4129
S'1528'
p3781
sI4130
S'1528'
p3782
sI4131
S'1528'
p3783
sI4132
g1
sI4133
S'1528'
p3784
s.