(dp0
S'Creation-Time'
p1
I143
sS'Leaf'
p2
I1617
sS'ms-FVE-VolumeGuid'
p3
I640
sS'MS-SQL-LastDiagnosticDate'
p4
I724
sS'msSFU-30-Max-Uid-Number'
p5
I1261
sS'Query-Policy'
p6
I1809
sS'ms-DS-Optional-Feature-GUID'
p7
I479
sS'Dns-Secure-Secondaries'
p8
I199
sS'Group-Type'
p9
I295
sS'ACS-Time-Of-Day'
p10
I54
sS'ms-DS-Device-ID'
p11
I1448
sS'Msi-Script'
p12
I777
sS'ms-DS-GeoCoordinates-Longitude'
p13
I1408
sS'ms-TPM-Information-Objects-Container'
p14
I1962
sS'Partial-Attribute-Set'
p15
I923
sS'ms-DS-Minimum-Password-Length'
p16
I497
sS'Print-Start-Time'
p17
I1004
sS'meetingLanguage'
p18
I403
sS'ms-DS-Local-Effective-Deletion-Time'
p19
I503
sS'Serial-Number'
p20
I1094
sS'Operating-System'
p21
I898
sS'Machine-Password-Change-Interval'
p22
I378
sS'Ipsec-Negotiation-Policy'
p23
I1611
sS'ms-DS-Value-Type-Reference'
p24
I595
sS'simpleSecurityObject'
p25
I1867
sS'rpc-Ns-Annotation'
p26
I1066
sS'Nt-Pwd-History'
p27
I882
sS'ms-DS-Non-Members'
p28
I518
sS'Ipsec-Name'
p29
I325
sS'Ipsec-Policy'
p30
I1615
sS'ms-DS-Az-Major-Version'
p31
I453
sS'IpServiceProtocol'
p32
I1234
sS'attributeCertificateAttribute'
p33
I86
sS'ms-DFS-Deleted-Link-v2'
p34
I1935
sS'NTDS-Site-Settings'
p35
I1778
sS'MemberUid'
p36
I1230
sS'ms-PKI-Credential-Roaming-Tokens'
p37
I661
sS'dhcp-Subnets'
p38
I181
sS'Version-Number-Hi'
p39
I1202
sS'CA-Connect'
p40
I109
sS'ms-DS-Tasks-For-Az-Role-BL'
p41
I569
sS'FRS-Partner-Auth-Level'
p42
I263
sS'ms-WMI-stringDefault'
p43
I768
sS'Bridgehead-Transport-List'
p44
I101
sS'Retired-Repl-DSA-Signatures'
p45
I1049
sS'DNS-Property'
p46
I196
sS'ms-Kds-SecretAgreement-AlgorithmID'
p47
I1389
sS'Frs-Computer-Reference'
p48
I249
sS'ms-DS-Cloud-IsEnabled'
p49
I1460
sS'ACS-Resource-Limits'
p50
I1490
sS'Owner'
p51
I915
sS'msSFU-30-Map-Filter'
p52
I1251
sS'ACS-Identity-Name'
p53
I27
sS'Group'
p54
I1584
sS'Dns-Root'
p55
I198
sS'ms-TAPI-Protocol-Id'
p56
I735
sS'MSMQ-Computer-Type-Ex'
p57
I784
sS'Local-Policy-Flags'
p58
I360
sS'Print-Orientations-Supported'
p59
I995
sS'ms-DS-Issuer-Certificates'
p60
I1437
sS'Phone-Ip-Primary'
p61
I935
sS'ms-DFS-Last-Modified-v2'
p62
I1317
sS'ms-DS-SyncServerUrl'
p63
I1461
sS'ms-DS-Security-Group-Extra-Classes'
p64
I564
sS'Options'
p65
I904
sS'ms-DFS-Link-Path-v2'
p66
I1319
sS'uniqueMember'
p67
I1176
sS'organizationalStatus'
p68
I908
sS'ms-WMI-PolicyTemplate'
p69
I1729
sS'Person'
p70
I1528
sS'MS-TS-ManagingLS'
p71
I1301
sS'ms-DS-Logon-Time-Sync-Interval'
p72
I493
sS'ms-DFSR-FileFilter'
p73
I615
sS'room'
p74
I1823
sS'dhcp-Servers'
p75
I178
sS'GidNumber'
p76
I1219
sS'ms-DS-Computer-AuthN-Policy'
p77
I1476
sS'ms-DS-Device-OS-Version'
p78
I1446
sS'Role-Occupant'
p79
I1063
sS'Bridgehead-Server-List-BL'
p80
I100
sS'ms-DFSR-Keywords'
p81
I618
sS'See-Also'
p82
I1092
sS'Telex-Number'
p83
I1148
sS'ms-DS-SiteName'
p84
I527
sS'MemberNisNetgroup'
p85
I1231
sS'Phone-Home-Primary'
p86
I933
sS'MSMQ-Out-Routing-Servers'
p87
I809
sS'ms-PKI-Certificate-Policy'
p88
I660
sS'ms-DFSR-ContentSet'
p89
I1683
sS'meetingIsEncrypted'
p90
I401
sS'ms-DS-AuthenticatedTo-Accountlist'
p91
I442
sS'msRASSavedCallbackNumber'
p92
I848
sS'GPC-Machine-Extension-Names'
p93
I289
sS'Public-Key-Policy'
p94
I1021
sS'App-Schema-Version'
p95
I78
sS'ms-RRAS-Attribute'
p96
I680
sS'ms-TPM-Information-Object'
p97
I1964
sS'IpService'
p98
I1899
sS'Network-Address'
p99
I874
sS'ms-DS-Mastered-By'
p100
I494
sS'Scope-Flags'
p101
I1085
sS'Admin-Description'
p102
I68
sS'Rights-Guid'
p103
I1062
sS'Group-Of-Names'
p104
I1586
sS'SubSchemaSubEntry'
p105
I1129
sS'ms-DFSR-DfsLinkTarget'
p106
I627
sS'X509-Cert'
p107
I1216
sS'Dns-Allow-XFR'
p108
I193
sS'dhcp-Sites'
p109
I179
sS'Object-Class'
p110
I886
sS'PKI-Key-Usage'
p111
I952
sS'rpc-Group'
p112
I1829
sS'ms-DS-Secondary-KrbTgt-Number'
p113
I581
sS'Print-Number-Up'
p114
I994
sS'EFSPolicy'
p115
I227
sS'UnixHomeDirectory'
p116
I1221
sS'ms-DS-AuthN-Policy-Silo-Members'
p117
I1472
sS'Inter-Site-Transport'
p118
I1601
sS'ms-Authz-Last-Effective-Security-Policy'
p119
I1375
sS'ms-DS-Az-LDAP-Query'
p120
I452
sS'MS-SQL-SQLPublication'
p121
I1709
sS'MS-SQL-AllowSnapshotFilesFTPDownloading'
p122
I731
sS'dhcp-Flags'
p123
I168
sS'E-mail-Addresses'
p124
I226
sS'msSFU-30-Is-Valid-Container'
p125
I1267
sS'ms-DS-AuthN-Policy-Silos'
p126
I1998
sS'MS-SQL-OLAPDatabase'
p127
I1713
sS'Phone-Office-Other'
p128
I939
sS'Address-Type'
p129
I65
sS'msSFU-30-Max-Gid-Number'
p130
I1260
sS'IpProtocolNumber'
p131
I1235
sS'User-Shared-Folder-Other'
p132
I1190
sS'OncRpcNumber'
p133
I1236
sS'Dynamic-LDAP-Server'
p134
I225
sS'MS-SQL-LastBackupDate'
p135
I723
sS'Supplemental-Credentials'
p136
I1133
sS'ms-DS-Lockout-Observation-Window'
p137
I505
sS'GP-Options'
p138
I286
sS'Employee-Type'
p139
I230
sS'ms-ieee-80211-Policy'
p140
I1691
sS'ms-Kds-RootKeyData'
p141
I1393
sS'documentPublisher'
p142
I204
sS'UidNumber'
p143
I1218
sS'Address-Home'
p144
I63
sS'msSFU-30-Order-Number'
p145
I1253
sS'ms-Kds-PrivateKey-Length'
p146
I1392
sS'Object-Classes'
p147
I888
sS'ms-DS-SPN-Suffixes'
p148
I567
sS'MS-DRM-Identity-Certificate'
p149
I433
sS'Site-Link'
p150
I1871
sS'ms-Imaging-PSPs'
p151
I1693
sS'MSMQ-Owner-ID'
p152
I810
sS'msSFU-30-Result-Attributes'
p153
I1250
sS'Has-Master-NCs'
p154
I297
sS'ms-DS-SD-Reference-Domain'
p155
I563
sS'MSMQ-In-Routing-Servers'
p156
I795
sS'International-ISDN-Number'
p157
I318
sS'Query-Policy-Object'
p158
I1029
sS'Modified-Count'
p159
I421
sS'Print-Collate'
p160
I975
sS'Entry-TTL'
p161
I234
sS'RID-Set'
p162
I1821
sS'Per-Msg-Dialog-Display-Table'
p163
I928
sS'MSMQ-OS-Type'
p164
I808
sS'MSMQ-Dependent-Client-Service'
p165
I787
sS'ms-DS-Registered-Users'
p166
I1442
sS'Bad-Password-Time'
p167
I97
sS'ms-DFS-Schema-Major-Version'
p168
I1323
sS'MSMQ-Service-Type'
p169
I823
sS'Poss-Superiors'
p170
I959
sS'Schema-ID-GUID'
p171
I1081
sS'ms-TS-Reconnection-Action'
p172
I1277
sS'FRS-Working-Path'
p173
I277
sS'Site-Object'
p174
I1119
sS'Has-Partial-Replica-NCs'
p175
I298
sS'ms-DS-PSO-Applies-To'
p176
I508
sS'Admin-Multiselect-Property-Pages'
p177
I70
sS'MS-SQL-SQLServer'
p178
I1703
sS'ms-DFSR-LocalSettings'
p179
I1671
sS'msSFU-30-Search-Attributes'
p180
I1249
sS'Operating-System-Version'
p181
I901
sS'ms-IIS-FTP-Root'
p182
I648
sS'Show-In-Advanced-View-Only'
p183
I1113
sS'ms-DS-Behavior-Version'
p184
I462
sS'Sync-Attributes'
p185
I1136
sS'System-Auxiliary-Class'
p186
I1140
sS'meetingURL'
p187
I415
sS'ms-DFSR-Flags'
p188
I619
sS'ms-DS-GroupMSAMembership'
p189
I1405
sS'Certificate-Authority-Object'
p190
I118
sS'netboot-Server'
p191
I871
sS'ms-DS-Claim-Source'
p192
I1380
sS'Additional-Trusted-Service-Names'
p193
I58
sS'ms-DS-Cloud-Extensions'
p194
I1988
sS'Lockout-Duration'
p195
I368
sS'Primary-Group-Token'
p196
I972
sS'ms-DS-Device-Registration-Service-Container'
p197
I1990
sS'documentSeries'
p198
I1559
sS'ms-Authz-Central-Access-Policy'
p199
I1974
sS'ms-DS-External-Store'
p200
I478
sS'Package-Name'
p201
I917
sS'Notification-List'
p202
I879
sS'CRL-Distribution-Point'
p203
I1536
sS'FRS-Flags'
p204
I259
sS'Max-Storage'
p205
I389
sS'Reports'
p206
I1044
sS'ms-WMI-QueryLanguage'
p207
I765
sS'ms-COM-PartitionSetLink'
p208
I430
sS'Enrollment-Providers'
p209
I233
sS'ms-WMI-TargetPath'
p210
I773
sS'ms-DS-Az-Scope-Name'
p211
I456
sS'ms-DFS-Ttl-v2'
p212
I1327
sS'BootParameter'
p213
I1241
sS'Proxied-Object-Name'
p214
I1017
sS'ms-DS-IsManaged'
p215
I1456
sS'ms-DNS-Signature-Inception-Offset'
p216
I1364
sS'Netboot-DUID'
p217
I860
sS'User-Password'
p218
I1185
sS'Phone-Home-Other'
p219
I932
sS'Search-Flags'
p220
I1088
sS'DS-UI-Shell-Maximum'
p221
I223
sS'ms-DS-Device-Object-Version'
p222
I1449
sS'MS-SQL-InformationDirectory'
p223
I717
sS'MSMQ-Queue'
p224
I1765
sS'rpc-Ns-Object-ID'
p225
I1072
sS'ms-DS-ManagedPasswordInterval'
p226
I1404
sS'ms-DS-User-Allowed-To-Authenticate-From'
p227
I1463
sS'Allowed-Child-Classes'
p228
I74
sS'Organizational-Role'
p229
I1792
sS'Primary-Group-ID'
p230
I971
sS'ms-DS-Filter-Containers'
p231
I480
sS'ms-TPM-Tpm-Information-For-Computer-BL'
p232
I1351
sS'FRS-Update-Timeout'
p233
I274
sS'ms-RADIUS-FramedIpv6Route'
p234
I686
sS'Organization'
p235
I6
sS'ms-Imaging-PSP-Identifier'
p236
I649
sS'NisNetgroup'
p237
I1909
sS'Dynamic-Object'
p238
I1572
sS'BootFile'
p239
I1242
sS'Ipsec-Data-Type'
p240
I321
sS'ms-net-ieee-80211-GP-PolicyReserved'
p241
I653
sS'netboot-SCP-BL'
p242
I870
sS'Rid'
p243
I1054
sS'Phone-Pager-Primary'
p244
I941
sS'Privilege-Value'
p245
I1014
sS'secretary'
p246
I1090
sS'Auxiliary-Class'
p247
I96
sS'DMD'
p248
I10
sS'COM-Treat-As-Class-Id'
p249
I128
sS'Logon-Hours'
p250
I373
sS'ms-WMI-RangeParam'
p251
I1733
sS'ms-DS-Object-Reference'
p252
I533
sS'Domain-Cross-Ref'
p253
I209
sS'ms-DS-Transformation-Rules-Compiled'
p254
I1414
sS'ms-WMI-int8ValidValues'
p255
I755
sS'ACS-Aggregate-Token-Rate-Per-User'
p256
I16
sS'From-Entry'
p257
I247
sS'ms-DS-Claim-Shares-Possible-Values-With'
p258
I1334
sS'ms-WMI-intMin'
p259
I750
sS'meetingType'
p260
I414
sS'ms-DS-Claim-Type'
p261
I1952
sS'Application-Version'
p262
I1506
sS'Account-Name-History'
p263
I15
sS'Range-Upper'
p264
I1032
sS'MSMQ-CSP-Name'
p265
I786
sS'ms-DFSR-Options2'
p266
I1311
sS'ACS-Non-Reserved-Peak-Rate'
p267
I44
sS'NTFRS-Member'
p268
I1780
sS'Teletex-Terminal-Identifier'
p269
I1147
sS'Employee-ID'
p270
I228
sS'ms-Authz-Central-Access-Rule'
p271
I1972
sS'Pwd-Last-Set'
p272
I1024
sS'Msi-Script-Size'
p273
I780
sS'FRS-Member-Reference'
p274
I261
sS'Cross-Ref'
p275
I1538
sS'Computer'
p276
I1522
sS'Logo'
p277
I371
sS'MSMQ-Authenticate'
p278
I781
sS'Operating-System-Hotfix'
p279
I899
sS'MSMQ-Nt4-Flags'
p280
I806
sS'ms-WMI-TargetNameSpace'
p281
I771
sS'ms-DS-Az-Domain-Timeout'
p282
I449
sS'rpc-Entry'
p283
I1827
sS'ms-net-ieee-8023-GP-PolicyReserved'
p284
I656
sS'meetingApplication'
p285
I393
sS'ms-DS-Phonetic-First-Name'
p286
I520
sS'associatedName'
p287
I85
sS'ms-Exch-Owner-BL'
p288
I601
sS'USN-Intersite'
p289
I1196
sS'Postal-Address'
p290
I962
sS'ms-Kds-PublicKey-Length'
p291
I1391
sS'ms-SPP-CSVLK-Pid'
p292
I1338
sS'Initial-Auth-Incoming'
p293
I310
sS'MS-SQL-PublicationURL'
p294
I709
sS'Time-Refresh'
p295
I1154
sS'Print-Max-X-Extent'
p296
I985
sS'ACS-Total-No-Of-Flows'
p297
I55
sS'MS-TS-ExpireDate4'
p298
I1296
sS'MS-TS-ExpireDate3'
p299
I1295
sS'MS-TS-ExpireDate2'
p300
I1294
sS'DBCS-Pwd'
p301
I153
sS'uniqueIdentifier'
p302
I1175
sS'Account-Expires'
p303
I13
sS'LDAP-IPDeny-List'
p304
I355
sS'netboot-Locally-Installed-OSes'
p305
I864
sS'jpegPhoto'
p306
I341
sS'Ipsec-ISAKMP-Policy'
p307
I1609
sS'Domain-Certificate-Authorities'
p308
I207
sS'State-Or-Province-Name'
p309
I1124
sS'ShadowMin'
p310
I1224
sS'ms-DS-Replication-Notify-First-DSA-Delay'
p311
I558
sS'MS-SQL-ServiceAccount'
p312
I694
sS'Domain-Component'
p313
I208
sS'Lost-And-Found'
p314
I1631
sS'Print-MAC-Address'
p315
I982
sS'UnixUserPassword'
p316
I1217
sS'ms-Kds-KDF-Param'
p317
I1388
sS'ms-DS-Cloud-Anchor'
p318
I1458
sS'msSFU-30-Crypt-Method'
p319
I1268
sS'Valid-Accesses'
p320
I1199
sS'Prior-Value'
p321
I1008
sS'Class-Registration'
p322
I1515
sS'ms-Exch-LabeledURI'
p323
I600
sS'msNPAllowDialin'
p324
I840
sS'Address-Template'
p325
I1496
sS'Manager'
p326
I383
sS'meetingBandwidth'
p327
I394
sS'meetingAdvertiseScope'
p328
I392
sS'Non-Security-Member-BL'
p329
I878
sS'NisMapName'
p330
I1243
sS'Garbage-Coll-Period'
p331
I279
sS'WWW-Page-Other'
p332
I1213
sS'documentTitle'
p333
I205
sS'ms-DS-Group-Managed-Service-Account'
p334
I1980
sS'Create-Time-Stamp'
p335
I141
sS'MS-SQL-OLAPServer'
p336
I1705
sS'Birth-Location'
p337
I99
sS'Shell-Property-Pages'
p338
I1110
sS'Is-Ephemeral'
p339
I335
sS'ms-DS-Revealed-DSAs'
p340
I582
sS'Product-Code'
p341
I1015
sS'Other-Mailbox'
p342
I912
sS'Netboot-GUID'
p343
I859
sS'ms-DNS-Server-Settings'
p344
I1966
sS'ms-DS-Assigned-AuthN-Policy-Silo'
p345
I1470
sS'Application-Site-Settings'
p346
I1504
sS'Options-Location'
p347
I905
sS'ms-WMI-StringSetParam'
p348
I1745
sS'File-Link-Tracking'
p349
I1574
sS'Site-GUID'
p350
I1116
sS'ms-DS-Issuer-Public-Certificates'
p351
I1455
sS'ms-DS-Az-Last-Imported-Biz-Rule-Path'
p352
I451
sS'ms-DS-Repl-Attribute-Meta-Data'
p353
I555
sS'ms-DS-Required-Domain-Behavior-Version'
p354
I510
sS'msRASSavedFramedRoute'
p355
I850
sS'Content-Indexing-Allowed'
p356
I134
sS'ms-DS-Cached-Membership-Time-Stamp'
p357
I465
sS'friendlyCountry'
p358
I1580
sS'ms-WMI-IntSetParam'
p359
I1723
sS'associatedDomain'
p360
I84
sS'ms-DFSR-RootPath'
p361
I606
sS'Phone-Fax-Other'
p362
I931
sS'dhcp-Obj-Name'
p363
I173
sS'ms-WMI-IntRangeParam'
p364
I1721
sS'COM-CLSID'
p365
I124
sS'Class-Display-Name'
p366
I121
sS'ms-TS-Home-Directory'
p367
I1270
sS'ms-DS-Quota-Container'
p368
I1663
sS'ms-WMI-PolicyType'
p369
I1731
sS'Proxy-Addresses'
p370
I1018
sS'Cross-Ref-Container'
p371
I1540
sS'MSMQ-Queue-Type'
p372
I817
sS'MSMQ-Site-Name'
p373
I834
sS'PKI-Expiration-Period'
p374
I950
sS'Authority-Revocation-List'
p375
I95
sS'Site-Link-List'
p376
I1117
sS'ms-Kds-KDF-AlgorithmID'
p377
I1387
sS'ShadowExpire'
p378
I1228
sS'ms-WMI-TargetClass'
p379
I770
sS'Operator-Count'
p380
I902
sS'Phone-Ip-Other'
p381
I934
sS'ms-DS-Password-History-Length'
p382
I500
sS'msSFU-30-Posix-Member'
p383
I1263
sS'Package-Flags'
p384
I916
sS'MS-SQL-SQLDatabase'
p385
I1711
sS'meetingRecurrence'
p386
I411
sS'USN-Changed'
p387
I1193
sS'Address-Book-Roots2'
p388
I1942
sS'BootableDevice'
p389
I1917
sS'Unicode-Pwd'
p390
I1174
sS'Query-Filter'
p391
I1027
sS'PosixAccount'
p392
I1893
sS'MSMQ-Site-Gates-Mig'
p393
I832
sS'Display-Template'
p394
I1550
sS'ms-WMI-int8Max'
p395
I753
sS'Locality'
p396
I1629
sS'MS-SQL-Contact'
p397
I690
sS'ms-TS-Endpoint-Data'
p398
I1284
sS'ms-DNS-NSEC3-OptOut'
p399
I1355
sS'Global-Address-List2'
p400
I1943
sS'ms-DS-Is-Used-As-Resource-Security-Attribute'
p401
I1329
sS'MS-SQL-GPSHeight'
p402
I712
sS'PKI-Critical-Extensions'
p403
I946
sS'System-Must-Contain'
p404
I1143
sS'Device'
p405
I1542
sS'ms-DS-Assigned-AuthN-Policy-Silo-BL'
p406
I1471
sS'Generation-Qualifier'
p407
I281
sS'groupOfUniqueNames'
p408
I1588
sS'Parent-GUID'
p409
I921
sS'rpc-Ns-Interface-ID'
p410
I1071
sS'ms-PKI-RA-Application-Policies'
p411
I674
sS'ms-DS-KrbTgt-Link'
p412
I576
sS'ms-SPP-Config-License'
p413
I1346
sS'Enabled-Connection'
p414
I232
sS'Service-Connection-Point'
p415
I1863
sS'When-Changed'
p416
I1209
sS'ms-DS-Az-Script-Engine-Cache-Max'
p417
I457
sS'Machine-Wide-Policy'
p418
I380
sS'Object-Guid'
p419
I890
sS'Quality-Of-Service'
p420
I1026
sS'Service-Class-ID'
p421
I1101
sS'ms-PKI-OID-Attribute'
p422
I665
sS'meetingName'
p423
I406
sS'Destination-Indicator'
p424
I166
sS'RID-Set-References'
p425
I1060
sS'Description'
p426
I164
sS'MSMQ-Services'
p427
I824
sS'Name-Service-Flags'
p428
I852
sS'PosixGroup'
p429
I1897
sS'netboot-New-Machine-OU'
p430
I869
sS'MSMQ-Enterprise-Settings'
p431
I1759
sS'PKI-Max-Issuing-Depth'
p432
I953
sS'Cross-Certificate-Pair'
p433
I148
sS'ms-FVE-RecoveryGuid'
p434
I642
sS'Service-Instance'
p435
I1865
sS'ms-DS-Az-Class-ID'
p436
I448
sS'ms-COM-ObjectId'
p437
I428
sS'rpc-Ns-Profile-Entry'
p438
I1074
sS'ms-DS-Site-Affinity'
p439
I566
sS'MS-SQL-Publisher'
p440
I727
sS'User-Principal-Name'
p441
I1188
sS'ms-DS-GeoCoordinates-Latitude'
p442
I1407
sS'Short-Server-Name'
p443
I1111
sS'ms-DFS-Namespace-Anchor'
p444
I1939
sS'ms-RADIUS-FramedInterfaceId'
p445
I682
sS'Last-Logon'
p446
I349
sS'System-Poss-Superiors'
p447
I1145
sS'Title'
p448
I1156
sS'ms-DS-Is-Partial-Replica-For'
p449
I586
sS'ms-DS-Quota-Trustee'
p450
I543
sS'COM-InterfaceID'
p451
I125
sS'DNS-Tombstoned'
p452
I200
sS'ms-COM-UserLink'
p453
I431
sS'ACS-Max-No-Of-Account-Files'
p454
I30
sS'ms-DS-Repl-Value-Meta-Data-Ext'
p455
I1453
sS'ms-WMI-UnknownRangeParam'
p456
I1751
sS'ms-WMI-stringValidValues'
p457
I769
sS'rpc-Ns-Bindings'
p458
I1067
sS'ms-DFSR-Topology'
p459
I1685
sS'ms-DS-Claims-Transformation-Policies'
p460
I1986
sS'ms-DFSR-GlobalSettings'
p461
I1677
sS'rpc-Server-Element'
p462
I1837
sS'Prefix-Map'
p463
I967
sS'dhcp-Identification'
p464
I169
sS'Original-Display-Table-MSDOS'
p465
I910
sS'ms-TS-Primary-Desktop-BL'
p466
I1289
sS'ms-DS-Device-Physical-IDs'
p467
I1447
sS'IPSEC-Negotiation-Policy-Type'
p468
I328
sS'ms-PKI-Enrollment-Flag'
p469
I662
sS'Treat-As-Leaf'
p470
I1161
sS'Pek-Key-Change-Interval'
p471
I924
sS'Machine-Architecture'
p472
I377
sS'ms-DS-Az-Operation'
p473
I1649
sS'MS-SQL-Location'
p474
I691
sS'ms-DS-User-AuthN-Policy-BL'
p475
I1475
sS'MS-SQL-GPSLongitude'
p476
I711
sS'ms-DS-Az-Generic-Data'
p477
I461
sS'ms-DS-Az-Admin-Manager'
p478
I1645
sS'MSMQ-Foreign'
p479
I794
sS'Help-Data16'
p480
I299
sS'Non-Security-Member'
p481
I877
sS'Seq-Notification'
p482
I1093
sS'msRADIUSCallbackNumber'
p483
I844
sS'Categories'
p484
I116
sS'Profile-Path'
p485
I1016
sS'ms-ieee-80211-Data'
p486
I644
sS'ms-DS-Members-For-Az-Role'
p487
I515
sS'ms-DS-cloudExtensionAttribute8'
p488
I1424
sS'CRL-Object'
p489
I146
sS'Help-File-Name'
p490
I301
sS'ms-DS-cloudExtensionAttribute3'
p491
I1419
sS'Ipsec-Data'
p492
I320
sS'ms-DS-cloudExtensionAttribute1'
p493
I1417
sS'Print-Rate-Unit'
p494
I999
sS'ms-DS-cloudExtensionAttribute6'
p495
I1422
sS'ms-DS-cloudExtensionAttribute5'
p496
I1421
sS'ms-DS-cloudExtensionAttribute4'
p497
I1420
sS'Time-Vol-Change'
p498
I1155
sS'Purported-Search'
p499
I1022
sS'Reps-To'
p500
I1047
sS'RID-Previous-Allocation-Pool'
p501
I1059
sS'ms-DS-Principal-Name'
p502
I540
sS'Common-Name'
p503
I132
sS'ms-DFSR-CachePolicy'
p504
I636
sS'MS-SQL-SortOrder'
p505
I696
sS'ms-TPM-Owner-Information-Temp'
p506
I1349
sS'Print-Min-Y-Extent'
p507
I991
sS'MS-SQL-ConnectionURL'
p508
I708
sS'Current-Parent-CA'
p509
I151
sS'Member'
p510
I416
sS'ms-DS-Is-Member-Of-DL-Transitive'
p511
I1450
sS'ms-WMI-SourceOrganization'
p512
I767
sS'meetingOwner'
p513
I408
sS'meetingMaxParticipants'
p514
I405
sS'Ipsec-Owners-Reference'
p515
I330
sS'ms-TS-Secondary-Desktops'
p516
I1288
sS'Print-Language'
p517
I981
sS'Logon-Workstation'
p518
I374
sS'Home-Drive'
p519
I304
sS'DHCP-Class'
p520
I1546
sS'Package-Registration'
p521
I1796
sS'ms-DS-Enabled-Feature-BL'
p522
I474
sS'MSMQ-Queue-Quota'
p523
I816
sS'DSA-Signature'
p524
I224
sS'meetingKeyword'
p525
I402
sS'ms-DS-Managed-Service-Account'
p526
I1667
sS'NT-Security-Descriptor'
p527
I883
sS'dhcp-Options'
p528
I174
sS'ms-DS-ExecuteScriptPassword'
p529
I476
sS'ms-ds-Schema-Extensions'
p530
I562
sS'Moniker'
p531
I424
sS'Link-Track-Volume-Table'
p532
I1627
sS'Preferred-OU'
p533
I966
sS'Attribute-Schema'
p534
I14
sS'ms-COM-PartitionLink'
p535
I429
sS'MSMQ-Label-Ex'
p536
I801
sS'documentVersion'
p537
I206
sS'Required-Categories'
p538
I1048
sS'ms-Authz-Central-Access-Policy-ID'
p539
I1377
sS'Object-Category'
p540
I885
sS'ms-DS-Assigned-AuthN-Policy-BL'
p541
I1481
sS'FRS-Root-Path'
p542
I267
sS'ms-DFSR-OnDemandExclusionDirectoryFilter'
p543
I1310
sS'Trust-Direction'
p544
I1166
sS'Given-Name'
p545
I282
sS'MSMQ-Recipient-FormatName'
p546
I819
sS'Group-Membership-SAM'
p547
I293
sS'ms-DFSR-ComputerReferenceBL'
p548
I631
sS'LoginShell'
p549
I1222
sS'rpc-Ns-Entry-Flags'
p550
I1069
sS'NTFRS-Subscriber'
p551
I1786
sS'ms-PKI-Enrollment-Servers'
p552
I663
sS'ms-DFSR-Version'
p553
I604
sS'ms-WMI-SimplePolicyTemplate'
p554
I1741
sS'ACS-Policy-Name'
p555
I49
sS'Control-Access-Rights'
p556
I136
sS'msRADIUSServiceType'
p557
I847
sS'Service-Instance-Version'
p558
I1106
sS'ms-DFS-Short-Name-Link-Path-v2'
p559
I1325
sS'Intellimirror-SCP'
p560
I1599
sS'UNC-Name'
p561
I1173
sS'MS-TS-ExpireDate'
p562
I1293
sS'Port-Name'
p563
I958
sS'Trust-Posix-Offset'
p564
I1169
sS'Initials'
p565
I312
sS'ms-DS-Minimum-Password-Age'
p566
I496
sS'ACS-Priority'
p567
I50
sS'IpHostNumber'
p568
I1237
sS'Upgrade-Product-Code'
p569
I1179
sS'meetingBlob'
p570
I395
sS'ms-DS-User-TGT-Lifetime'
p571
I1464
sS'ShadowLastChange'
p572
I1223
sS'Trust-Auth-Outgoing'
p573
I1165
sS'ShadowInactive'
p574
I1227
sS'Print-Status'
p575
I1005
sS'Admin-Property-Pages'
p576
I71
sS'ms-FRS-Hub-Member'
p577
I602
sS'FRS-Replica-Set-Type'
p578
I266
sS'Implemented-Categories'
p579
I308
sS'MacAddress'
p580
I1240
sS'MS-SQL-Build'
p581
I693
sS'FRS-Control-Data-Creation'
p582
I251
sS'Ipsec-NFA'
p583
I1613
sS'MS-SQL-SQLRepository'
p584
I1707
sS'FRS-Root-Security'
p585
I268
sS'Top'
p586
I1884
sS'ms-DS-Service-Allowed-To-Authenticate-To'
p587
I1467
sS'Foreign-Identifier'
p588
I245
sS'ms-WMI-intFlags4'
p589
I748
sS'ms-WMI-intFlags1'
p590
I745
sS'ms-WMI-intFlags3'
p591
I747
sS'ms-WMI-intFlags2'
p592
I746
sS'MSMQ-Migrated'
p593
I803
sS'ms-SPP-Phone-License'
p594
I1345
sS'ms-DFSR-MinDurationCacheInMin'
p595
I637
sS'QueryPoint'
p596
I1030
sS'Telephone-Number'
p597
I1146
sS'ms-WMI-Genus'
p598
I742
sS'SAM-Account-Name'
p599
I1076
sS'meetingID'
p600
I399
sS'ms-DS-NC-Repl-Cursors'
p601
I545
sS'Remote-Mail-Recipient'
p602
I1811
sS'meetingIP'
p603
I400
sS'Tombstone-Lifetime'
p604
I1157
sS'Super-Scope-Description'
p605
I1130
sS'User-Parameters'
p606
I1184
sS'Pwd-Properties'
p607
I1025
sS'ms-net-ieee-8023-GP-PolicyGUID'
p608
I654
sS'ms-DS-Object-Reference-BL'
p609
I534
sS'netboot-Limit-Clients'
p610
I863
sS'ms-DFS-Schema-Minor-Version'
p611
I1324
sS'FRS-Version'
p612
I275
sS'MS-SQL-InformationURL'
p613
I707
sS'userPKCS12'
p614
I1187
sS'ms-DS-ManagedPasswordPreviousId'
p615
I1403
sS'ms-DS-Computer-Allowed-To-Authenticate-To'
p616
I1465
sS'ms-WMI-int8Default'
p617
I752
sS'Enabled'
p618
I231
sS'ms-DS-Az-Object-Guid'
p619
I460
sS'ms-Authz-Proposed-Security-Policy'
p620
I1374
sS'Bad-Pwd-Count'
p621
I98
sS'Creator'
p622
I145
sS'MSMQ-Privacy-Level'
p623
I812
sS'roomNumber'
p624
I1064
sS'MSMQ-Routing-Service'
p625
I820
sS'Extended-Attribute-Info'
p626
I235
sS'Allowed-Attributes-Effective'
p627
I73
sS'ms-Print-ConnectionPolicy'
p628
I1697
sS'Container'
p629
I1530
sS'COM-ProgID'
p630
I127
sS'MS-SQL-Description'
p631
I715
sS'Service-Administration-Point'
p632
I1859
sS'ms-DS-Claim-Is-Value-Space-Restricted'
p633
I1382
sS'ms-DS-Tasks-For-Az-Role'
p634
I568
sS'ms-TS-Home-Drive'
p635
I1271
sS'Default-Object-Category'
p636
I158
sS'Supported-Application-Context'
p637
I1134
sS'USN-Last-Obj-Rem'
p638
I1197
sS'Vol-Table-Idx-GUID'
p639
I1205
sS'ms-FRS-Topology-Pref'
p640
I603
sS'netboot-New-Machine-Naming-Policy'
p641
I868
sS'Code-Page'
p642
I122
sS'ACS-Enable-RSVP-Accounting'
p643
I24
sS'MS-SQL-Size'
p644
I721
sS'Localization-Display-Id'
p645
I365
sS'Last-Content-Indexed'
p646
I346
sS'MSMQ-User-Sid'
p647
I838
sS'ms-DFS-Link-v2'
p648
I1937
sS'ms-DFSR-Subscriber'
p649
I1673
sS'Schema-Flags-Ex'
p650
I1080
sS'Subnet-Container'
p651
I1881
sS'ACS-RSVP-Log-Files-Location'
p652
I52
sS'FRS-Staging-Path'
p653
I271
sS'Phone-ISDN-Primary'
p654
I936
sS'ms-DS-Host-Service-Account'
p655
I484
sS'ms-DS-User-Allowed-To-Authenticate-To'
p656
I1462
sS'ms-WMI-Parm4'
p657
I762
sS'ms-WMI-Parm3'
p658
I761
sS'ms-WMI-Parm2'
p659
I760
sS'ms-WMI-Parm1'
p660
I759
sS'Server-Name'
p661
I1095
sS'ms-DS-Service-AuthN-Policy-BL'
p662
I1479
sS'Mail-Recipient'
p663
I1633
sS'ms-DFSR-MemberReference'
p664
I628
sS'ms-DS-Computer-TGT-Lifetime'
p665
I1466
sS'Inter-Site-Topology-Generator'
p666
I316
sS'dhcp-Reservations'
p667
I177
sS'ms-Exch-Configuration-Container'
p668
I1669
sS'ms-WMI-WMIGPO'
p669
I1753
sS'MS-SQL-Name'
p670
I688
sS'Auditing-Policy'
p671
I93
sS'System-Flags'
p672
I1141
sS'netboot-Answer-Requests'
p673
I857
sS'UAS-Compat'
p674
I1171
sS'ms-DS-Local-Effective-Recycle-Time'
p675
I504
sS'msSFU-30-NSMAP-Field-Position'
p676
I1262
sS'Storage'
p677
I1877
sS'Location'
p678
I366
sS'Bytes-Per-Minute'
p679
I106
sS'Remote-Storage-Service-Point'
p680
I1813
sS'rpc-Ns-Codeset'
p681
I1068
sS'Application-Process'
p682
I1500
sS'ms-WMI-UintRangeParam'
p683
I1747
sS'msNPCallingStationID'
p684
I842
sS'ms-DS-OIDToGroup-Link'
p685
I498
sS'Aggregate'
p686
I11
sS'Ipsec-Filter'
p687
I1607
sS'ms-DS-Cloud-IsManaged'
p688
I1457
sS'ms-DFSR-MemberReferenceBL'
p689
I630
sS'LDAP-Display-Name'
p690
I354
sS'ms-DFSR-Priority'
p691
I632
sS'MSMQ-Secured-Source'
p692
I822
sS'Is-Deleted'
p693
I334
sS'ms-DFSR-Extension'
p694
I605
sS'Print-Max-Y-Extent'
p695
I986
sS'MS-TSLS-Property02'
p696
I1306
sS'Replica-Source'
p697
I1043
sS'ms-DNS-Maintain-Trust-Anchor'
p698
I1356
sS'ms-TS-Secondary-Desktop-BL'
p699
I1290
sS'Parent-CA-Certificate-Chain'
p700
I920
sS'Tree-Name'
p701
I1162
sS'Print-Keep-Printed-Jobs'
p702
I980
sS'ms-DS-Non-Security-Group-Extra-Classes'
p703
I551
sS'Personal-Title'
p704
I930
sS'MS-SQL-AllowImmediateUpdatingSubscription'
p705
I729
sS'ms-DS-Password-Settings-Container'
p706
I1661
sS'Help-Data32'
p707
I300
sS'Server-State'
p708
I1099
sS'ms-DFSR-DirectoryFilter'
p709
I616
sS'ms-Imaging-Hash-Algorithm'
p710
I1399
sS'ms-DNS-Is-Signed'
p711
I1353
sS'ms-PKI-Key-Recovery-Agent'
p712
I1701
sS'MSMQ-Queue-Journal-Quota'
p713
I814
sS'Link-Track-Vol-Entry'
p714
I1625
sS'Attribute-ID'
p715
I88
sS'ms-ieee-80211-ID'
p716
I646
sS'netboot-Allow-New-Clients'
p717
I855
sS'ACS-DSBM-Priority'
p718
I21
sS'Domain-Replica'
p719
I214
sS'Sam-Server'
p720
I1847
sS'MSMQ-Version'
p721
I839
sS'Organizational-Unit'
p722
I1794
sS'Certificate-Revocation-List'
p723
I119
sS'ms-DS-Phonetic-Company-Name'
p724
I523
sS'ms-WMI-PropertyName'
p725
I763
sS'ms-DS-Auxiliary-Classes'
p726
I439
sS'msSFU-30-Netgroup-User-At-Domain'
p727
I1266
sS'ms-SPP-Installation-Id'
p728
I1342
sS'ms-Imaging-PSP-String'
p729
I650
sS'Country-Code'
p730
I138
sS'ms-DS-Az-Application'
p731
I1647
sS'documentLocation'
p732
I203
sS'OEM-Information'
p733
I893
sS'FRS-Replica-Set-GUID'
p734
I265
sS'MHS-OR-Address'
p735
I417
sS'userClass'
p736
I1186
sS'Move-Tree-State'
p737
I426
sS'MSMQ-Encrypt-Key'
p738
I793
sS'Division'
p739
I188
sS'ACS-Non-Reserved-Token-Size'
p740
I45
sS'Per-Recip-Dialog-Display-Table'
p741
I929
sS'msSFU-30-Net-Id'
p742
I1921
sS'rpc-Profile-Element'
p743
I1833
sS'FRS-Control-Inbound-Backlog'
p744
I252
sS'Phone-Mobile-Primary'
p745
I938
sS'Initial-Auth-Outgoing'
p746
I311
sS'document'
p747
I1557
sS'Object-Class-Category'
p748
I887
sS'Lockout-Threshold'
p749
I369
sS'msSFU-30-Posix-Member-Of'
p750
I1264
sS'ACS-Enable-ACS-Service'
p751
I23
sS'ms-TPM-Srk-Pub-Thumbprint'
p752
I1348
sS'Site-List'
p753
I1118
sS'Previous-Parent-CA'
p754
I970
sS'MS-DS-Per-User-Trust-Quota'
p755
I552
sS'ACS-Max-Token-Bucket-Per-Flow'
p756
I36
sS'Country-Name'
p757
I139
sS'Delta-Revocation-List'
p758
I161
sS'MSMQ-Dependent-Client-Services'
p759
I788
sS'RID-Available-Pool'
p760
I1056
sS'NTDS-DSA-RO'
p761
I1774
sS'ms-DS-Promotion-Settings'
p762
I526
sS'OncRpc'
p763
I1903
sS'COM-ClassID'
p764
I123
sS'ACS-DSBM-Refresh'
p765
I22
sS'ms-DS-Operations-For-Az-Task'
p766
I537
sS'ms-DS-Password-Complexity-Enabled'
p767
I501
sS'MSMQ-Ds-Services'
p768
I792
sS'meetingLocation'
p769
I404
sS'Link-Track-OMT-Entry'
p770
I1623
sS'Sam-Domain-Base'
p771
I1845
sS'msSFU-30-Key-Values'
p772
I1256
sS'ms-DNS-NSEC3-User-Salt'
p773
I1371
sS'ms-DS-Az-Biz-Rule-Language'
p774
I447
sS'Can-Upgrade-Script'
p775
I112
sS'ACS-Server-List'
p776
I56
sS'MSMQ-Site-2'
p777
I829
sS'MSMQ-Site-1'
p778
I828
sS'MS-SQL-TCPIP'
p779
I702
sS'ms-TS-Primary-Desktop'
p780
I1287
sS'ms-DS-PSO-Applied'
p781
I509
sS'ms-SPP-Issuance-License'
p782
I1347
sS'dhcp-Type'
p783
I182
sS'Is-Privilege-Holder'
p784
I338
sS'ms-DS-TDO-Ingress-BL'
p785
I1413
sS'Last-Backup-Restoration-Time'
p786
I345
sS'GP-Link'
p787
I285
sS'ms-FVE-RecoveryInformation'
p788
I1933
sS'IpProtocol'
p789
I1901
sS'ms-DS-Deleted-Object-Lifetime'
p790
I471
sS'Repl-Property-Meta-Data'
p791
I1040
sS'ms-DS-isGC'
p792
I489
sS'NETBIOS-Name'
p793
I854
sS'ms-DS-Host-Service-Account-BL'
p794
I485
sS'ms-DS-Is-Possible-Values-Present'
p795
I488
sS'Volume-Count'
p796
I1206
sS'DS-Core-Propagation-Data'
p797
I219
sS'MS-SQL-Alias'
p798
I720
sS'FRS-Service-Command-Status'
p799
I270
sS'Pending-Parent-CA'
p800
I927
sS'ms-DS-Quota-Effective'
p801
I542
sS'ms-WMI-CreationDate'
p802
I741
sS'ms-DS-Egress-Claims-Transformation-Policy'
p803
I1411
sS'Configuration'
p804
I1524
sS'MS-TS-ManagingLS4'
p805
I1304
sS'MS-TS-ManagingLS3'
p806
I1303
sS'MS-TS-ManagingLS2'
p807
I1302
sS'ms-DS-Device-Registration-Service'
p808
I1992
sS'Extension-Name'
p809
I238
sS'ms-DS-Claim-Value-Type'
p810
I1331
sS'Schema-Info'
p811
I1082
sS'Organization-Name'
p812
I906
sS'Allowed-Attributes'
p813
I72
sS'ms-DS-Resource-Property-List'
p814
I1956
sS'Legacy-Exchange-DN'
p815
I356
sS'ms-DS-Password-Settings'
p816
I1659
sS'Ipsec-Negotiation-Policy-Reference'
p817
I327
sS'ms-DFSR-ConflictSizeInMb'
p818
I611
sS'When-Created'
p819
I1210
sS'ms-Kds-Version'
p820
I1394
sS'LSA-Modified-Count'
p821
I376
sS'MS-SQL-SPX'
p822
I701
sS'ms-DFS-Link-Security-Descriptor-v2'
p823
I1320
sS'NTDS-Connection'
p824
I1771
sS'Is-Member-Of-DL'
p825
I336
sS'Install-Ui-Level'
p826
I313
sS'ms-WMI-ShadowObject'
p827
I1739
sS'ms-Exch-Assistant-Name'
p828
I598
sS'FRS-Fault-Condition'
p829
I257
sS'Meeting'
p830
I1635
sS'ms-TS-Endpoint-Plugin'
p831
I1286
sS'msSFU-30-Aliases'
p832
I1255
sS'MS-SQL-UnicodeSortOrder'
p833
I697
sS'MAPI-ID'
p834
I384
sS'Sites-Container'
p835
I1875
sS'ms-DS-Computer-AuthN-Policy-BL'
p836
I1477
sS'Builtin-Modified-Count'
p837
I104
sS'FRS-Control-Outbound-Backlog'
p838
I253
sS'RDN'
p839
I1033
sS'Service-Principal-Name'
p840
I1107
sS'Surname'
p841
I1135
sS'FRS-DS-Poll'
p842
I255
sS'SMTP-Mail-Address'
p843
I1122
sS'RID-Manager'
p844
I1819
sS'Lockout-Time'
p845
I370
sS'Registered-Address'
p846
I1035
sS'Address-Book-Container'
p847
I1494
sS'ms-DS-NC-RO-Replica-Locations'
p848
I549
sS'ms-DFS-Properties-v2'
p849
I1322
sS'COM-Unique-LIBID'
p850
I130
sS'ms-Kds-DomainID'
p851
I1395
sS'PKT-Guid'
p852
I956
sS'Print-Rate'
p853
I998
sS'ms-PKI-Certificate-Application-Policy'
p854
I658
sS'ms-DNS-Propagation-Time'
p855
I1370
sS'ms-TS-Work-Directory'
p856
I1282
sS'Super-Scopes'
p857
I1131
sS'ms-DS-Optional-Feature'
p858
I1657
sS'ms-DS-Approximate-Last-Logon-Time-Stamp'
p859
I1443
sS'msRADIUSFramedRoute'
p860
I846
sS'ms-DNS-Secure-Delegation-Polling-Period'
p861
I1365
sS'ms-DS-Other-Settings'
p862
I539
sS'Country'
p863
I1534
sS'Is-Recycled'
p864
I339
sS'Dns-Zone'
p865
I1555
sS'labeledURI'
p866
I344
sS'Must-Contain'
p867
I851
sS'Trusted-Domain'
p868
I1886
sS'ms-DS-Never-Reveal-Group'
p869
I579
sS'ms-DS-Value-Type-Reference-BL'
p870
I596
sS'ms-DS-Service-TGT-Lifetime'
p871
I1469
sS'DS-Heuristics'
p872
I220
sS'NTDS-Service'
p873
I1776
sS'ms-DFSR-RootFence'
p874
I625
sS'Ipsec-ISAKMP-Reference'
p875
I324
sS'Organizational-Person'
p876
I1790
sS'ms-DS-Retired-Repl-NC-Signatures'
p877
I561
sS'ms-DS-Claim-Is-Single-Valued'
p878
I1383
sS'ms-DS-App-Configuration'
p879
I1641
sS'ms-DS-TDO-Egress-BL'
p880
I1412
sS'ms-DS-Non-Members-BL'
p881
I519
sS'ms-net-ieee-80211-GP-PolicyGUID'
p882
I651
sS'ACS-Cache-Timeout'
p883
I18
sS'Icon-Path'
p884
I307
sS'ms-RADIUS-SavedFramedInterfaceId'
p885
I683
sS'Is-Single-Valued'
p886
I340
sS'MSMQ-Name-Style'
p887
I805
sS'SAM-Domain-Updates'
p888
I1078
sS'ACS-Minimum-Policed-Size'
p889
I41
sS'Next-Level-Store'
p890
I875
sS'DMD-Name'
p891
I190
sS'MSMQ-Group'
p892
I1761
sS'FRS-Version-GUID'
p893
I276
sS'COM-Typelib-Id'
p894
I129
sS'Current-Location'
p895
I150
sS'ms-DS-Enabled-Feature'
p896
I473
sS'Object-Version'
p897
I892
sS'rFC822LocalPart'
p898
I1817
sS'ms-DFS-Generation-GUID-v2'
p899
I1316
sS'OMT-Guid'
p900
I896
sS'MSMQ-Custom-Recipient'
p901
I1757
sS'Telex-Primary'
p902
I1149
sS'Privilege-Display-Name'
p903
I1012
sS'Dns-Record'
p904
I197
sS'ms-DS-Ingress-Claims-Transformation-Policy'
p905
I1410
sS'Knowledge-Information'
p906
I343
sS'preferredLanguage'
p907
I965
sS'MS-SQL-Version'
p908
I713
sS'Server-Reference-BL'
p909
I1097
sS'ms-PKI-RA-Policies'
p910
I675
sS'ms-DS-Primary-Computer'
p911
I1385
sS'meetingOriginator'
p912
I407
sS'ms-Imaging-Thumbprint-Hash'
p913
I1398
sS'Vol-Table-GUID'
p914
I1204
sS'Token-Groups'
p915
I1050
sS'netboot-Current-Client-Count'
p916
I858
sS'Inter-Site-Transport-Container'
p917
I1603
sS'ms-SPP-Activation-Objects-Container'
p918
I1958
sS'Ipsec-ID'
p919
I323
sS'ms-DFSR-StagingPath'
p920
I608
sS'Preferred-Delivery-Method'
p921
I964
sS'MSMQ-Transactional'
p922
I837
sS'MSMQ-Computer-Type'
p923
I783
sS'ACS-Maximum-SDU-Size'
p924
I38
sS'MSMQ-Sign-Certificates'
p925
I825
sS'Print-Duplex-Supported'
p926
I977
sS'Transport-DLL-Name'
p927
I1159
sS'ms-DS-Az-Application-Version'
p928
I445
sS'Display-Specifier'
p929
I1548
sS'Schema-Version'
p930
I1084
sS'msSFU-30-Domain-Info'
p931
I1923
sS'ms-DS-HAB-Seniority-Index'
p932
I525
sS'ms-SPP-Activation-Object'
p933
I1960
sS'ms-TS-Default-To-Main-Printer'
p934
I1281
sS'ms-DFSR-RdcMinFileSizeInKb'
p935
I623
sS'ms-DS-Drs-Farm-ID'
p936
I1454
sS'MS-SQL-RegisteredOwner'
p937
I689
sS'NisMapEntry'
p938
I1244
sS'ms-DS-AuthN-Policy-Enforced'
p939
I1482
sS'ms-DS-Byte-Array'
p940
I463
sS'msNPCalledStationID'
p941
I841
sS'ms-Kds-UseStartTime'
p942
I1396
sS'meetingDescription'
p943
I397
sS'NisObject'
p944
I1913
sS'MSMQ-Sign-Key'
p945
I827
sS'ms-RADIUS-FramedIpv6Prefix'
p946
I684
sS'ms-DS-Has-Domain-NCs'
p947
I482
sS'x500uniqueIdentifier'
p948
I1215
sS'MS-SQL-NamedPipe'
p949
I699
sS'IpNetmaskNumber'
p950
I1239
sS'Index-Server-Catalog'
p951
I1592
sS'MS-SQL-Language'
p952
I714
sS'msSFU-30-NIS-Map-Config'
p953
I1927
sS'Domain-Identifier'
p954
I211
sS'MSMQ-Interval2'
p955
I797
sS'PKI-Extended-Key-Usage'
p956
I951
sS'Operating-System-Service-Pack'
p957
I900
sS'Max-Renew-Age'
p958
I388
sS'Print-Max-Copies'
p959
I983
sS'Create-Dialog'
p960
I140
sS'PKI-Enrollment-Service'
p961
I1803
sS'NTFRS-Subscriptions'
p962
I1788
sS'FRS-Directory-Filter'
p963
I254
sS'Previous-CA-Certificates'
p964
I969
sS'Proxy-Generation-Enabled'
p965
I1019
sS'ms-net-ieee-80211-GP-PolicyData'
p966
I652
sS'MSMQ-Nt4-Stub'
p967
I807
sS'X121-Address'
p968
I1214
sS'ms-DFSR-StagingCleanupTriggerInPercent'
p969
I1314
sS'Servers-Container'
p970
I1857
sS'Server-Reference'
p971
I1096
sS'ms-SPP-KMS-Ids'
p972
I1341
sS'Other-Name'
p973
I913
sS'Flags'
p974
I242
sS'ms-DS-ManagedPasswordId'
p975
I1402
sS'MS-SQL-LastUpdatedDate'
p976
I706
sS'RRAS-Administration-Dictionary'
p977
I1841
sS'FSMO-Role-Owner'
p978
I278
sS'ms-SPP-Confirmation-Id'
p979
I1343
sS'ms-DFSR-DeletedSizeInMb'
p980
I634
sS'Script-Path'
p981
I1086
sS'ms-TAPI-Unique-Identifier'
p982
I736
sS'Employee-Number'
p983
I229
sS'FT-Dfs'
p984
I1582
sS'ms-DS-Az-Task'
p985
I1655
sS'ms-WMI-intDefault'
p986
I744
sS'ms-DS-Device-Container'
p987
I1994
sS'netboot-Max-Clients'
p988
I866
sS'ms-DS-Lockout-Duration'
p989
I506
sS'System-May-Contain'
p990
I1142
sS'ms-DFSR-Content'
p991
I1681
sS'ms-DS-UpdateScript'
p992
I574
sS'Repl-Topology-Stay-Of-Execution'
p993
I1041
sS'USN-Source'
p994
I1198
sS'Domain-DNS'
p995
I1561
sS'ms-PKI-OID-User-Notice'
p996
I668
sS'DNS-Host-Name'
p997
I194
sS'Obj-Dist-Name'
p998
I884
sS'ms-DS-Failed-Interactive-Logon-Count-At-Last-Successful-Logon'
p999
I593
sS'Remote-Server-Name'
p1000
I1036
sS'Moniker-Display-Name'
p1001
I425
sS'msSFU-30-Network-User'
p1002
I1925
sS'netboot-Answer-Only-Valid-Clients'
p1003
I856
sS'Remote-Source-Type'
p1004
I1038
sS'Inter-Site-Topology-Failover'
p1005
I315
sS'houseIdentifier'
p1006
I305
sS'Picture'
p1007
I945
sS'ms-TAPI-Rt-Conference'
p1008
I1717
sS'dhcp-Obj-Description'
p1009
I172
sS'PKI-Overlap-Period'
p1010
I954
sS'ms-net-ieee-8023-GroupPolicy'
p1011
I1931
sS'ms-TS-Endpoint-Type'
p1012
I1285
sS'Foreign-Security-Principal'
p1013
I1578
sS'Service-Class-Name'
p1014
I1103
sS'LSA-Creation-Time'
p1015
I375
sS'ms-WMI-intMax'
p1016
I749
sS'MSMQ-Routing-Services'
p1017
I821
sS'CA-Certificate'
p1018
I107
sS'Shell-Context-Menu'
p1019
I1109
sS'Well-Known-Objects'
p1020
I1208
sS'Home-Directory'
p1021
I303
sS'msRASSavedFramedIPAddress'
p1022
I849
sS'ACS-Subnet'
p1023
I1492
sS'ms-DS-Members-For-Az-Role-BL'
p1024
I516
sS'Print-Queue'
p1025
I1807
sS'Licensing-Site-Settings'
p1026
I1619
sS'ms-DS-Is-Enabled'
p1027
I1444
sS'DS-UI-Settings'
p1028
I1568
sS'ms-SPP-Online-License'
p1029
I1344
sS'Show-In-Address-Book'
p1030
I1112
sS'OM-Syntax'
p1031
I895
sS'Dns-Node'
p1032
I1553
sS'ms-DS-Applies-To-Resource-Types'
p1033
I1415
sS'ms-DS-Claim-Type-Applies-To-Class'
p1034
I1333
sS'Last-Logoff'
p1035
I348
sS'ms-DS-AuthN-Policy-Silo'
p1036
I2002
sS'Catalogs'
p1037
I115
sS'ms-DS-Az-Generate-Audits'
p1038
I450
sS'Rpc-Container'
p1039
I1825
sS'ms-Authz-Member-Rules-In-Central-Access-Policy-BL'
p1040
I1379
sS'msSFU-30-Name'
p1041
I1254
sS'RID-Allocation-Pool'
p1042
I1055
sS'ms-WMI-ScopeGuid'
p1043
I766
sS'ms-DS-Has-Full-Replica-NCs'
p1044
I578
sS'Groups-to-Ignore'
p1045
I296
sS'OMT-Indx-Guid'
p1046
I897
sS'ms-DS-Quota-Control'
p1047
I1665
sS'Contact'
p1048
I1527
sS'Option-Description'
p1049
I903
sS'MS-TS-LicenseVersion4'
p1050
I1300
sS'MS-DS-Machine-Account-Quota'
p1051
I532
sS'Pwd-History-Length'
p1052
I1023
sS'MS-TS-LicenseVersion3'
p1053
I1299
sS'MS-TS-LicenseVersion2'
p1054
I1298
sS'Version-Number'
p1055
I1201
sS'ms-Kds-SecretAgreement-Param'
p1056
I1390
sS'ms-DS-cloudExtensionAttribute12'
p1057
I1428
sS'ms-DS-cloudExtensionAttribute11'
p1058
I1427
sS'ms-DS-cloudExtensionAttribute10'
p1059
I1426
sS'ms-DS-cloudExtensionAttribute17'
p1060
I1433
sS'ms-DS-cloudExtensionAttribute16'
p1061
I1432
sS'ms-DS-cloudExtensionAttribute15'
p1062
I1431
sS'ms-DS-cloudExtensionAttribute14'
p1063
I1430
sS'ms-DS-cloudExtensionAttribute19'
p1064
I1435
sS'ms-DS-cloudExtensionAttribute18'
p1065
I1434
sS'Text-Encoded-OR-Address'
p1066
I1153
sS'ms-DS-Reveal-OnDemand-Group'
p1067
I580
sS'MSMQ-Queue-Name-Ext'
p1068
I815
sS'Keywords'
p1069
I342
sS'ms-TS-Max-Connection-Time'
p1070
I1275
sS'ms-TS-Profile-Path'
p1071
I1269
sS'ms-DS-Repl-Value-Meta-Data'
p1072
I556
sS'May-Contain'
p1073
I391
sS'buildingName'
p1074
I102
sS'ms-TS-Connect-Client-Drives'
p1075
I1279
sS'Remote-Storage-GUID'
p1076
I1039
sS'ms-WMI-Class'
p1077
I739
sS'Control-Access-Right'
p1078
I1532
sS'ms-DFSR-ReadOnly'
p1079
I635
sS'documentIdentifier'
p1080
I202
sS'Other-Login-Workstations'
p1081
I911
sS'msSFU-30-Netgroup-Host-At-Domain'
p1082
I1265
sS'Service-DNS-Name-Type'
p1083
I1105
sS'MSMQ-Migrated-User'
p1084
I1763
sS'ms-DS-Az-Scope'
p1085
I1653
sS'Builtin-Creation-Time'
p1086
I103
sS'ms-DS-User-Account-Control-Computed'
p1087
I572
sS'ACS-DSBM-DeadTime'
p1088
I20
sS'Certification-Authority'
p1089
I1513
sS'ms-DFSR-DeletedPath'
p1090
I633
sS'ms-DS-Phonetic-Department'
p1091
I522
sS'MS-SQL-Status'
p1092
I705
sS'Link-Track-Object-Move-Table'
p1093
I1621
sS'ms-WMI-Name'
p1094
I757
sS'carLicense'
p1095
I114
sS'Cost'
p1096
I137
sS'Print-Max-Resolution-Supported'
p1097
I984
sS'MSMQ-Ds-Service'
p1098
I791
sS'ms-WMI-ClassDefinition'
p1099
I740
sS'Print-Stapling-Supported'
p1100
I1003
sS'NT-Group-Members'
p1101
I880
sS'msSFU-30-Intra-Field-Separator'
p1102
I1248
sS'USN-Created'
p1103
I1194
sS'Reps-From'
p1104
I1046
sS'meetingEndTime'
p1105
I398
sS'Domain-Policy-Reference'
p1106
I213
sS'Netboot-Machine-File-Path'
p1107
I865
sS'Object-Sid'
p1108
I891
sS'ms-TS-Allow-Logon'
p1109
I1272
sS'Group-Priority'
p1110
I294
sS'ms-DS-cloudExtensionAttribute13'
p1111
I1429
sS'ms-DS-Supported-Encryption-Types'
p1112
I528
sS'Driver-Name'
p1113
I217
sS'domainRelatedObject'
p1114
I1566
sS'System-Only'
p1115
I1144
sS'ms-DS-NC-Type'
p1116
I517
sS'rpc-Ns-Priority'
p1117
I1073
sS'ms-IIS-FTP-Dir'
p1118
I647
sS'PKI-Default-CSPs'
p1119
I947
sS'MS-SQL-Clustered'
p1120
I698
sS'Attribute-Security-GUID'
p1121
I89
sS'Is-Member-Of-Partial-Attribute-Set'
p1122
I337
sS'Force-Logoff'
p1123
I244
sS'Sync-With-SID'
p1124
I1139
sS'ms-DNS-NSEC3-Iterations'
p1125
I1361
sS'rpc-Profile'
p1126
I1831
sS'Query-Policy-BL'
p1127
I1028
sS'IpHost'
p1128
I1905
sS'SID-History'
p1129
I1114
sS'Server'
p1130
I1855
sS'ms-PKI-Private-Key-Recovery-Agent'
p1131
I1805
sS'meetingScope'
p1132
I412
sS'ms-DNS-RFC5011-Key-Rollovers'
p1133
I1358
sS'Site-Server'
p1134
I1121
sS'User-Account-Control'
p1135
I1181
sS'ms-DS-cloudExtensionAttribute9'
p1136
I1425
sS'Class-Store'
p1137
I1518
sS'ANR'
p1138
I77
sS'Default-Local-Policy-Object'
p1139
I157
sS'ms-Authz-Central-Access-Rules'
p1140
I1970
sS'Infrastructure-Update'
p1141
I1595
sS'inetOrgPerson'
p1142
I1593
sS'ms-DS-User-Password-Expiry-Time-Computed'
p1143
I573
sS'ms-DS-cloudExtensionAttribute2'
p1144
I1418
sS'MS-SQL-OLAPCube'
p1145
I1715
sS'Trust-Auth-Incoming'
p1146
I1164
sS'ms-DS-Service-AuthN-Policy'
p1147
I1478
sS'ms-DS-cloudExtensionAttribute7'
p1148
I1423
sS'Admin-Display-Name'
p1149
I69
sS'ms-DS-Allowed-To-Delegate-To'
p1150
I438
sS'Print-Network-Address'
p1151
I992
sS'ms-DS-Assigned-AuthN-Policy'
p1152
I1480
sS'Lock-Out-Observation-Window'
p1153
I367
sS'ms-DS-NC-Repl-Inbound-Neighbors'
p1154
I546
sS'DSA'
p1155
I1570
sS'Marshalled-Interface'
p1156
I385
sS'Dns-Allow-Dynamic'
p1157
I192
sS'Template-Roots'
p1158
I1150
sS'ms-DFSR-Connection'
p1159
I1689
sS'ms-DS-Has-Master-NCs'
p1160
I483
sS'ms-DS-IntId'
p1161
I487
sS'ms-DS-Service-Allowed-To-Authenticate-From'
p1162
I1468
sS'Invocation-Id'
p1163
I319
sS'ms-DFSR-ContentSetGuid'
p1164
I621
sS'ms-DFSR-ReplicationGroup'
p1165
I1679
sS'Print-Spooling'
p1166
I1002
sS'User-Comment'
p1167
I1183
sS'MS-DS-Consistency-Guid'
p1168
I466
sS'Print-Notify'
p1169
I993
sS'Ipsec-Base'
p1170
I1605
sS'MSMQ-Quota'
p1171
I818
sS'ms-DS-GeoCoordinates-Altitude'
p1172
I1406
sS'ms-DS-Parent-Dist-Name'
p1173
I1452
sS'Default-Class-Store'
p1174
I154
sS'ms-DNS-Keymaster-Zones'
p1175
I1352
sS'ms-PKI-Template-Schema-Version'
p1176
I673
sS'ms-DS-Additional-Dns-Host-Name'
p1177
I434
sS'Local-Policy-Reference'
p1178
I361
sS'ms-DS-KeyVersionNumber'
p1179
I492
sS'MSMQ-Site-ID'
p1180
I833
sS'Msi-Script-Name'
p1181
I778
sS'Address'
p1182
I59
sS'Is-Defunct'
p1183
I333
sS'Max-Pwd-Age'
p1184
I387
sS'netboot-Tools'
p1185
I873
sS'MS-SQL-GPSLatitude'
p1186
I710
sS'ms-TS-Initial-Program'
p1187
I1283
sS'IpServicePort'
p1188
I1233
sS'Service-Class-Info'
p1189
I1102
sS'Repl-UpToDate-Vector'
p1190
I1042
sS'ms-DS-Az-Application-Data'
p1191
I443
sS'ms-DFSR-Options'
p1192
I620
sS'Netboot-Mirror-Data-File'
p1193
I867
sS'Builtin-Domain'
p1194
I1509
sS'FRS-File-Filter'
p1195
I258
sS'Domain-ID'
p1196
I210
sS'ms-DS-isRODC'
p1197
I490
sS'msSFU-30-Domains'
p1198
I1258
sS'msSFU-30-Yp-Servers'
p1199
I1259
sS'MSMQ-Sign-Certificates-Mig'
p1200
I826
sS'ms-DS-User-AuthN-Policy'
p1201
I1474
sS'MSMQ-Digests'
p1202
I789
sS'MSMQ-Label'
p1203
I800
sS'Type-Library'
p1204
I1888
sS'MS-SQL-Applications'
p1205
I725
sS'ms-TS-Max-Idle-Time'
p1206
I1276
sS'Possible-Inferiors'
p1207
I960
sS'Link-Track-Secret'
p1208
I358
sS'SPN-Mappings'
p1209
I1123
sS'ms-WMI-TargetObject'
p1210
I772
sS'Print-End-Time'
p1211
I978
sS'ms-PKI-Supersede-Templates'
p1212
I671
sS'ms-DNS-Signing-Key-Descriptors'
p1213
I1366
sS'ms-DFSR-RootSizeInMb'
p1214
I607
sS'ms-DFSR-OnDemandExclusionFileFilter'
p1215
I1309
sS'ACS-Policy'
p1216
I1488
sS'USN-DSA-Last-Obj-Removed'
p1217
I1195
sS'Dfs-Configuration'
p1218
I1544
sS'ms-DFSR-ConflictPath'
p1219
I610
sS'ms-Imaging-PostScanProcess'
p1220
I1695
sS'Physical-Location-Object'
p1221
I944
sS'ms-TS-Connect-Printer-Drives'
p1222
I1280
sS'Print-Attributes'
p1223
I973
sS'ms-DNS-DS-Record-Set-TTL'
p1224
I1363
sS'PKI-Default-Key-Spec'
p1225
I948
sS'Governs-ID'
p1226
I284
sS'ms-DS-USN-Last-Sync-Success'
p1227
I594
sS'Creation-Wizard'
p1228
I144
sS'ms-DS-Phonetic-Last-Name'
p1229
I521
sS'Domain-Policy-Object'
p1230
I212
sS'documentAuthor'
p1231
I201
sS'ms-PKI-Certificate-Name-Flag'
p1232
I659
sS'ms-WMI-Author'
p1233
I737
sS'Min-Pwd-Age'
p1234
I418
sS'IPSEC-Negotiation-Policy-Action'
p1235
I326
sS'DMD-Location'
p1236
I189
sS'ms-DS-Device-OS-Type'
p1237
I1445
sS'From-Server'
p1238
I248
sS'ms-DS-Az-Biz-Rule'
p1239
I446
sS'rpc-Server'
p1240
I1835
sS'ms-DS-Resource-Properties'
p1241
I1950
sS'GPC-Functionality-Version'
p1242
I288
sS'Service-Class'
p1243
I1861
sS'MSMQ-Configuration'
p1244
I1755
sS'IpNetwork'
p1245
I1907
sS'ms-DS-Lockout-Threshold'
p1246
I507
sS'Group-Attributes'
p1247
I292
sS'ms-DS-OIDToGroup-Link-BL'
p1248
I499
sS'Business-Category'
p1249
I105
sS'ms-DS-RID-Pool-Allocation-Enabled'
p1250
I1416
sS'FRS-Extensions'
p1251
I256
sS'IndexedScopes'
p1252
I309
sS'FRS-Service-Command'
p1253
I269
sS'Comment'
p1254
I131
sS'Domain'
p1255
I1560
sS'dhcp-State'
p1256
I180
sS'ms-DFS-Namespace-v2'
p1257
I1941
sS'ms-WMI-ID'
p1258
I743
sS'PKI-Enrollment-Access'
p1259
I949
sS'Application-Name'
p1260
I79
sS'Inter-Site-Topology-Renew'
p1261
I317
sS'Transport-Address-Attribute'
p1262
I1158
sS'MSMQ-Journal'
p1263
I798
sS'Intellimirror-Group'
p1264
I1597
sS'Privilege-Holder'
p1265
I1013
sS'ms-PKI-Minimal-Key-Size'
p1266
I664
sS'ms-WMI-intValidValues'
p1267
I751
sS'Root-Trust'
p1268
I1065
sS'MS-SQL-Memory'
p1269
I692
sS'ms-FVE-RecoveryPassword'
p1270
I639
sS'ms-DS-Preferred-GC-Site'
p1271
I554
sS'User'
p1272
I1889
sS'ms-DS-Approx-Immed-Subordinates'
p1273
I440
sS'Repl-Interval'
p1274
I1045
sS'MS-DS-Consistency-Child-Count'
p1275
I467
sS'MS-SQL-CharacterSet'
p1276
I695
sS'Msi-File-List'
p1277
I776
sS'ms-DFS-Target-List-v2'
p1278
I1326
sS'Next-Rid'
p1279
I876
sS'ms-DS-Is-Domain-For'
p1280
I585
sS'Remote-Source'
p1281
I1037
sS'ms-DS-Entry-Time-To-Die'
p1282
I475
sS'Privilege-Attributes'
p1283
I1011
sS'Print-Min-X-Extent'
p1284
I990
sS'MSMQ-Settings'
p1285
I1767
sS'Group-Policy-Container'
p1286
I1590
sS'Machine-Role'
p1287
I379
sS'User-Cert'
p1288
I1182
sS'PKI-Certificate-Template'
p1289
I1801
sS'MS-SQL-Type'
p1290
I716
sS'ACS-Max-Duration-Per-Flow'
p1291
I29
sS'Phone-Mobile-Other'
p1292
I937
sS'Wbem-Path'
p1293
I1207
sS'ms-DS-Az-Script-Timeout'
p1294
I458
sS'DIT-Content-Rules'
p1295
I187
sS'ms-Authz-Member-Rules-In-Central-Access-Policy'
p1296
I1378
sS'Physical-Delivery-Office-Name'
p1297
I943
sS'ms-DS-BridgeHead-Servers-Used'
p1298
I1328
sS'ms-TAPI-Ip-Address'
p1299
I734
sS'ms-DS-Az-Task-Is-Role-Definition'
p1300
I459
sS'Curr-Machine-Id'
p1301
I149
sS'ShadowMax'
p1302
I1225
sS'Winsock-Addresses'
p1303
I1211
sS'ms-DS-Value-Type'
p1304
I1982
sS'Logon-Count'
p1305
I372
sS'ms-DFSR-MaxAgeInCacheInMin'
p1306
I638
sS'Version-Number-Lo'
p1307
I1203
sS'ms-DS-Member-Transitive'
p1308
I1451
sS'Policy-Replication-Flags'
p1309
I957
sS'ms-TS-Max-Disconnection-Time'
p1310
I1274
sS'WWW-Home-Page'
p1311
I1212
sS'Setup-Command'
p1312
I1108
sS'ms-DS-Revealed-List'
p1313
I588
sS'Residential-Person'
p1314
I1815
sS'Original-Display-Table'
p1315
I909
sS'Domain-Policy'
p1316
I1564
sS'Security-Principal'
p1317
I1853
sS'ms-DS-Tasks-For-Az-Task-BL'
p1318
I571
sS'Print-Bin-Names'
p1319
I974
sS'ms-DS-Maximum-Registration-Inactivity-Period'
p1320
I1439
sS'ms-DS-Az-Role'
p1321
I1651
sS'ms-DS-Registered-Owner'
p1322
I1441
sS'ms-DS-Phonetic-Display-Name'
p1323
I524
sS'Certificate-Templates'
p1324
I120
sS'DS-UI-Admin-Maximum'
p1325
I221
sS'ms-DS-Resource-Property'
p1326
I1954
sS'Department'
p1327
I162
sS'Physical-Location'
p1328
I1799
sS'ms-DFSR-TombstoneExpiryInMin'
p1329
I614
sS'ms-DS-External-Key'
p1330
I477
sS'Revision'
p1331
I1053
sS'ms-Authz-Effective-Security-Policy'
p1332
I1373
sS'ms-DNS-Sign-With-NSEC3'
p1333
I1354
sS'NisNetgroupTriple'
p1334
I1232
sS'ACS-Max-Aggregate-Peak-Rate-Per-User'
p1335
I28
sS'MS-SQL-ThirdParty'
p1336
I732
sS'Localized-Description'
p1337
I364
sS'Pending-CA-Certificates'
p1338
I926
sS'ms-DS-Optional-Feature-Flags'
p1339
I597
sS'Superior-DNS-Root'
p1340
I1132
sS'MSMQ-Interval1'
p1341
I796
sS'Msi-Script-Path'
p1342
I779
sS'rpc-Ns-Group'
p1343
I1070
sS'Gecos'
p1344
I1220
sS'ms-DS-Trust-Forest-Trust-Info'
p1345
I529
sS'ms-DFSR-RdcEnabled'
p1346
I622
sS'MS-DS-All-Users-Trust-Quota'
p1347
I436
sS'Global-Address-List'
p1348
I283
sS'NT-Mixed-Domain'
p1349
I881
sS'Canonical-Name'
p1350
I113
sS'Package-Type'
p1351
I918
sS'msSFU-30-Mail-Aliases'
p1352
I1919
sS'ms-FVE-KeyPackage'
p1353
I641
sS'Assoc-NT-Account'
p1354
I83
sS'ms-DS-ManagedPassword'
p1355
I1401
sS'Private-Key'
p1356
I1010
sS'ms-DFSR-DefaultCompressionExclusionFilter'
p1357
I1308
sS'Post-Office-Box'
p1358
I961
sS'Sync-With-Object'
p1359
I1138
sS'ms-DS-NC-Replica-Locations'
p1360
I548
sS'rpc-Ns-Transfer-Syntax'
p1361
I1075
sS'ms-DS-Allowed-DNS-Suffixes'
p1362
I437
sS'Display-Name-Printable'
p1363
I186
sS'Security-Identifier'
p1364
I1091
sS'Lm-Pwd-History'
p1365
I359
sS'ms-DS-ReplicationEpoch'
p1366
I560
sS'ms-DS-Top-Quota-Usage'
p1367
I531
sS'ms-DS-Claim-Shares-Possible-Values-With-BL'
p1368
I1335
sS'ms-DS-Quota-Amount'
p1369
I541
sS'Create-Wizard-Ext'
p1370
I142
sS'IEEE802Device'
p1371
I1915
sS'ms-DS-AuthN-Policy-Silo-Enforced'
p1372
I1483
sS'ms-DS-Generation-Id'
p1373
I1384
sS'Terminal-Server'
p1374
I1151
sS'Instance-Type'
p1375
I314
sS'Security-Object'
p1376
I1851
sS'Generated-Connection'
p1377
I280
sS'msSFU-30-Field-Separator'
p1378
I1247
sS'Proxy-Lifetime'
p1379
I1020
sS'Applies-To'
p1380
I80
sS'ms-DS-App-Data'
p1381
I1643
sS'Last-Update-Sequence'
p1382
I352
sS'ms-DFS-Namespace-Identity-GUID-v2'
p1383
I1321
sS'Print-Separator-File'
p1384
I1000
sS'Facsimile-Telephone-Number'
p1385
I240
sS'RID-Next-RID'
p1386
I1058
sS'Modified-Count-At-Last-Prom'
p1387
I422
sS'ms-COM-Partition'
p1388
I1637
sS'msRADIUSFramedIPAddress'
p1389
I845
sS'ms-WMI-UintSetParam'
p1390
I1749
sS'account'
p1391
I1485
sS'ms-DS-Source-Object-DN'
p1392
I575
sS'Application-Settings'
p1393
I1502
sS'Com-Connection-Point'
p1394
I1520
sS'IpNetworkNumber'
p1395
I1238
sS'ms-DS-AuthenticatedAt-DC'
p1396
I441
sS'ms-DS-Revealed-Users'
p1397
I577
sS'Print-Owner'
p1398
I996
sS'ms-WMI-ChangeDate'
p1399
I738
sS'ms-DFSR-Enabled'
p1400
I612
sS'Extra-Columns'
p1401
I239
sS'ms-DS-Operations-For-Az-Task-BL'
p1402
I538
sS'MSMQ-Site-Foreign'
p1403
I830
sS'ms-PKI-Private-Key-Flag'
p1404
I669
sS'Other-Well-Known-Objects'
p1405
I914
sS'Ipsec-Policy-Reference'
p1406
I331
sS'ms-DNS-NSEC3-Current-Salt'
p1407
I1372
sS'ms-DS-NC-Repl-Outbound-Neighbors'
p1408
I547
sS'unstructuredName'
p1409
I1178
sS'Link-ID'
p1410
I357
sS'ms-WMI-TargetType'
p1411
I774
sS'Presentation-Address'
p1412
I968
sS'ms-WMI-int8Min'
p1413
I754
sS'Address-Syntax'
p1414
I64
sS'GPC-File-Sys-Path'
p1415
I287
sS'ms-DS-AuthN-Policies'
p1416
I2000
sS'MS-DS-Per-User-Trust-Tombstones-Quota'
p1417
I553
sS'ms-WMI-NormalizedClass'
p1418
I758
sS'Print-Memory'
p1419
I989
sS'Default-Priority'
p1420
I159
sS'ms-WMI-Query'
p1421
I764
sS'ms-COM-DefaultPartitionLink'
p1422
I427
sS'ms-COM-UserPartitionSetLink'
p1423
I432
sS'MS-TSLS-Property01'
p1424
I1305
sS'Schedule'
p1425
I1079
sS'ms-PKI-OID-LocalizedName'
p1426
I667
sS'Attribute-Display-Names'
p1427
I87
sS'ms-DS-cloudExtensionAttribute20'
p1428
I1436
sS'File-Ext-Priority'
p1429
I241
sS'ms-DFSR-DfsPath'
p1430
I624
sS'ms-DS-Integer'
p1431
I486
sS'ms-DS-Resultant-PSO'
p1432
I512
sS'CRL-Partitioned-Revocation-List'
p1433
I147
sS'ms-DFSR-StagingSizeInMb'
p1434
I609
sS'NTDS-DSA'
p1435
I8
sS'ms-DS-Cloud-Issuer-Public-Certificates'
p1436
I1459
sS'FRS-Member-Reference-BL'
p1437
I262
sS'SD-Rights-Effective'
p1438
I1087
sS'ms-WMI-Mof'
p1439
I756
sS'Text-Country'
p1440
I1152
sS'ms-DS-AuthN-Policy'
p1441
I2004
sS'Netboot-Initialization'
p1442
I861
sS'ms-DS-Operations-For-Az-Role'
p1443
I535
sS'ms-DS-Cached-Membership'
p1444
I464
sS'Print-Media-Supported'
p1445
I988
sS'ms-DS-Members-Of-Resource-Property-List'
p1446
I1336
sS'NisMap'
p1447
I1911
sS'ms-PKI-Template-Minor-Revision'
p1448
I672
sS'Address-Book-Roots'
p1449
I60
sS'Flat-Name'
p1450
I243
sS'Desktop-Profile'
p1451
I165
sS'Phone-Pager-Other'
p1452
I940
sS'ms-DFS-Link-Identity-GUID-v2'
p1453
I1318
sS'Asset-Number'
p1454
I81
sS'ms-DS-Claim-Attribute-Source'
p1455
I1332
sS'ms-DFSR-Schedule'
p1456
I617
sS'ms-COM-PartitionSet'
p1457
I1639
sS'ms-DS-Allowed-To-Act-On-Behalf-Of-Other-Identity'
p1458
I1400
sS'PKT'
p1459
I955
sS'Partial-Attribute-Deletion-List'
p1460
I922
sS'Max-Ticket-Age'
p1461
I390
sS'ms-DS-Claim-Possible-Values'
p1462
I1330
sS'ms-DNS-NSEC3-Random-Salt-Length'
p1463
I1360
sS'MS-SQL-MultiProtocol'
p1464
I700
sS'ms-net-ieee-8023-GP-PolicyData'
p1465
I655
sS'Category-Registration'
p1466
I1511
sS'msSFU-30-Nis-Domain'
p1467
I1257
sS'MSMQ-Journal-Quota'
p1468
I799
sS'Postal-Code'
p1469
I963
sS'ACS-Max-Peak-Bandwidth'
p1470
I32
sS'ms-WMI-MergeablePolicyTemplate'
p1471
I1725
sS'ms-WMI-Som'
p1472
I1743
sS'Mastered-By'
p1473
I386
sS'Sam-Domain'
p1474
I1843
sS'ms-DFSR-Subscription'
p1475
I1675
sS'Print-Pages-Per-Minute'
p1476
I997
sS'Ipsec-Filter-Reference'
p1477
I322
sS'ms-DFSR-ReplicationGroupGuid'
p1478
I626
sS'ms-DS-Required-Forest-Behavior-Version'
p1479
I511
sS'Context-Menu'
p1480
I135
sS'ms-DS-Date-Time'
p1481
I469
sS'DN-Reference-Update'
p1482
I191
sS'ACS-Enable-RSVP-Message-Logging'
p1483
I25
sS'Friendly-Names'
p1484
I246
sS'ms-DS-Transformation-Rules'
p1485
I1409
sS'Object-Count'
p1486
I889
sS'Netboot-SIF-File'
p1487
I872
sS'MSMQ-Digests-Mig'
p1488
I790
sS'ms-DFSR-CommonStagingPath'
p1489
I1312
sS'MSMQ-Base-Priority'
p1490
I782
sS'ms-PKI-AccountCredentials'
p1491
I679
sS'ms-DS-Az-Application-Name'
p1492
I444
sS'MS-TS-Property01'
p1493
I1291
sS'MS-TS-Property02'
p1494
I1292
sS'ms-DS-Tasks-For-Az-Task'
p1495
I570
sS'Hide-From-AB'
p1496
I302
sS'Priority'
p1497
I1009
sS'Frs-Computer-Reference-BL'
p1498
I250
sS'ms-DS-Claim-Type-Property-Base'
p1499
I1946
sS'ms-DS-Device-Location'
p1500
I1440
sS'MSMQ-Prev-Site-Gates'
p1501
I811
sS'Print-Media-Ready'
p1502
I987
sS'ACS-Service-Type'
p1503
I53
sS'Range-Lower'
p1504
I1031
sS'Managed-Objects'
p1505
I382
sS'Address-Entry-Display-Table-MSDOS'
p1506
I62
sS'ms-ieee-80211-Data-Type'
p1507
I645
sS'dhcp-MaxKey'
p1508
I171
sS'User-Workstations'
p1509
I1192
sS'Print-Color'
p1510
I976
sS'ACS-Max-Peak-Bandwidth-Per-Flow'
p1511
I33
sS'ms-DS-Operations-For-Az-Role-BL'
p1512
I536
sS'Secret'
p1513
I1849
sS'ms-DNS-DNSKEY-Record-Set-TTL'
p1514
I1362
sS'Application-Entity'
p1515
I1498
sS'MS-SQL-AppleTalk'
p1516
I703
sS'ACS-Max-Size-Of-RSVP-Log-File'
p1517
I35
sS'RRAS-Administration-Connection-Point'
p1518
I1839
sS'ms-PKI-OID-CPS'
p1519
I666
sS'CA-Usages'
p1520
I110
sS'Sync-Membership'
p1521
I1137
sS'ms-DNS-NSEC3-Hash-Algorithm'
p1522
I1359
sS'Extended-Chars-Allowed'
p1523
I236
sS'Last-Set-Time'
p1524
I351
sS'ms-DS-Password-Reversible-Encryption-Enabled'
p1525
I502
sS'ms-net-ieee-80211-GroupPolicy'
p1526
I1929
sS'ACS-Non-Reserved-Max-SDU-Size'
p1527
I42
sS'ACS-Max-Token-Rate-Per-Flow'
p1528
I37
sS'ms-DS-NC-RO-Replica-Locations-BL'
p1529
I550
sS'msSFU-30-Key-Attributes'
p1530
I1246
sS'ms-DS-Is-User-Cachable-At-Rodc'
p1531
I587
sS'ms-DS-Claims-Transformation-Policy-Type'
p1532
I1984
sS'ms-DS-Additional-Sam-Account-Name'
p1533
I435
sS'ms-DS-Maximum-Password-Age'
p1534
I495
sS'Street-Address'
p1535
I1125
sS'Dns-Notify-Secondaries'
p1536
I195
sS'Min-Pwd-Length'
p1537
I419
sS'ms-DFSR-CommonStagingSizeInMb'
p1538
I1313
sS'ms-DS-Az-Minor-Version'
p1539
I454
sS'Schema-Update'
p1540
I1083
sS'ms-DS-Max-Values'
p1541
I514
sS'meetingProtocol'
p1542
I409
sS'ms-TAPI-Conference-Blob'
p1543
I733
sS'ms-DFSR-Member'
p1544
I1687
sS'ACS-Direction'
p1545
I19
sS'Attribute-Types'
p1546
I91
sS'DS-UI-Admin-Notification'
p1547
I222
sS'Pek-List'
p1548
I925
sS'Trust-Parent'
p1549
I1167
sS'ShadowAccount'
p1550
I1895
sS'Managed-By'
p1551
I381
sS'ACS-RSVP-Account-Files-Location'
p1552
I51
sS'Parent-CA'
p1553
I919
sS'ms-PKI-RA-Signature'
p1554
I676
sS'ms-DS-Revealed-List-BL'
p1555
I589
sS'dhcp-Unique-Key'
p1556
I183
sS'FRS-Time-Last-Command'
p1557
I272
sS'Service-Binding-Information'
p1558
I1100
sS'SAM-Account-Type'
p1559
I1077
sS'ms-TPM-Tpm-Information-For-Computer'
p1560
I1350
sS'ACS-Max-Size-Of-RSVP-Account-File'
p1561
I34
sS'ms-DFSR-DisablePacketPrivacy'
p1562
I1307
sS'ms-DS-DnsRootAlias'
p1563
I472
sS'Trust-Type'
p1564
I1170
sS'ms-Authz-Resource-Condition'
p1565
I1376
sS'Prior-Set-Time'
p1566
I1007
sS'Default-Hiding-Value'
p1567
I156
sS'Current-Value'
p1568
I152
sS'Modify-Time-Stamp'
p1569
I423
sS'ms-DS-AuthN-Policy-Silo-Members-BL'
p1570
I1473
sS'Last-Logon-Timestamp'
p1571
I350
sS'MSMQ-Site-Gates'
p1572
I831
sS'ms-PKI-Site-Name'
p1573
I670
sS'RDN-Att-ID'
p1574
I1034
sS'ms-TAPI-Rt-Person'
p1575
I1719
sS'ms-DS-Failed-Interactive-Logon-Count'
p1576
I592
sS'Sub-Class-Of'
p1577
I1127
sS'MSMQ-Long-Lived'
p1578
I802
sS'ms-SPP-CSVLK-Sku-Id'
p1579
I1340
sS'ms-DFSR-ComputerReference'
p1580
I629
sS'ShadowWarning'
p1581
I1226
sS'uid'
p1582
I1172
sS'ms-TS-Broken-Connection-Action'
p1583
I1278
sS'ACS-Non-Reserved-Tx-Size'
p1584
I47
sS'Category-Id'
p1585
I117
sS'Print-Share-Name'
p1586
I1001
sS'Print-Form-Name'
p1587
I979
sS'ShadowFlag'
p1588
I1229
sS'MS-SQL-AllowKnownPullSubscription'
p1589
I728
sS'Min-Ticket-Age'
p1590
I420
sS'ms-Exch-House-Identifier'
p1591
I599
sS'ms-DS-Claim-Types'
p1592
I1948
sS'RID-Manager-Reference'
p1593
I1057
sS'Template-Roots2'
p1594
I1944
sS'Service-DNS-Name'
p1595
I1104
sS'NTFRS-Settings'
p1596
I1784
sS'ms-DS-Registration-Quota'
p1597
I1438
sS'OM-Object-Class'
p1598
I894
sS'Printer-Name'
p1599
I1006
sS'MS-DS-Creator-SID'
p1600
I468
sS'Server-Role'
p1601
I1098
sS'Transport-Type'
p1602
I1160
sS'ms-SPP-CSVLK-Partial-Product-Key'
p1603
I1339
sS'ACS-Minimum-Delay-Variation'
p1604
I39
sS'FRS-Level-Limit'
p1605
I260
sS'ms-DS-Members-Of-Resource-Property-List-BL'
p1606
I1337
sS'ms-DS-Is-Primary-Computer-For'
p1607
I1386
sS'MSMQ-QM-ID'
p1608
I813
sS'dhcp-Mask'
p1609
I170
sS'Domain-Wide-Policy'
p1610
I215
sS'drink'
p1611
I216
sS'MSMQ-Site-Link'
p1612
I1769
sS'Token-Groups-No-GC-Acceptable'
p1613
I1052
sS'ms-DFSR-ReplicationGroupType'
p1614
I613
sS'ms-DS-Settings'
p1615
I565
sS'Attribute-Syntax'
p1616
I90
sS'COM-Other-Prog-Id'
p1617
I126
sS'ms-DS-Password-Settings-Precedence'
p1618
I513
sS'MS-SQL-Vines'
p1619
I704
sS'ACS-Max-No-Of-Log-Files'
p1620
I31
sS'audio'
p1621
I92
sS'Alt-Security-Identities'
p1622
I76
sS'Connection-Point'
p1623
I1526
sS'ms-Authz-Central-Access-Policies'
p1624
I1968
sS'ms-DS-Replication-Notify-Subsequent-DSA-Delay'
p1625
I559
sS'unstructuredAddress'
p1626
I1177
sS'ACS-Event-Log-Level'
p1627
I26
sS'Company'
p1628
I133
sS'Extended-Class-Info'
p1629
I237
sS'Site-Link-Bridge'
p1630
I1873
sS'ms-PKI-DPAPIMasterKeys'
p1631
I678
sS'CA-WEB-URL'
p1632
I111
sS'ms-DFS-Comment-v2'
p1633
I1315
sS'ms-WMI-RealRangeParam'
p1634
I1735
sS'ms-DNS-DS-Record-Algorithms'
p1635
I1357
sS'MSMQ-Sites'
p1636
I836
sS'photo'
p1637
I942
sS'MSMQ-Cost'
p1638
I785
sS'FRS-Time-Last-Config-Change'
p1639
I273
sS'ms-DS-Default-Quota'
p1640
I470
sS'Admin-Context-Menu'
p1641
I66
sS'ms-DNS-DNSKEY-Records'
p1642
I1368
sS'dhcp-Update-Time'
p1643
I184
sS'Address-Entry-Display-Table'
p1644
I61
sS'ms-DS-Is-Full-Replica-For'
p1645
I584
sS'Allowed-Child-Classes-Effective'
p1646
I75
sS'NTFRS-Replica-Set'
p1647
I1782
sS'ms-TPM-OwnerInformation'
p1648
I643
sS'Locale-ID'
p1649
I362
sS'ms-DS-Last-Failed-Interactive-Logon-Time'
p1650
I591
sS'msNPSavedCallingStationID'
p1651
I843
sS'Ipsec-NFA-Reference'
p1652
I329
sS'Driver-Version'
p1653
I218
sS'MS-SQL-Database'
p1654
I718
sS'meetingRating'
p1655
I410
sS'ms-RRAS-Vendor-Attribute-Entry'
p1656
I681
sS'Last-Known-Parent'
p1657
I347
sS'ms-WMI-Rule'
p1658
I1737
sS'Sub-Refs'
p1659
I1128
sS'meetingContactInfo'
p1660
I396
sS'Vendor'
p1661
I1200
sS'RID-Used-Pool'
p1662
I1061
sS'SubSchema'
p1663
I12
sS'ACS-Allocable-RSVP-Bandwidth'
p1664
I17
sS'ms-Kds-CreateTime'
p1665
I1397
sS'MS-SQL-CreationDate'
p1666
I722
sS'ACS-Non-Reserved-Min-Policed-Size'
p1667
I43
sS'ms-PKI-RoamingTimeStamp'
p1668
I677
sS'NC-Name'
p1669
I853
sS'MSMQ-Site-Name-Ex'
p1670
I835
sS'ms-DS-Quota-Used'
p1671
I544
sS'MS-SQL-AllowQueuedUpdatingSubscription'
p1672
I730
sS'Organizational-Unit-Name'
p1673
I907
sS'User-Shared-Folder'
p1674
I1189
sS'host'
p1675
I306
sS'Structural-Object-Class'
p1676
I1126
sS'CA-Certificate-DN'
p1677
I108
sS'LDAP-Admin-Limits'
p1678
I353
sS'Class-Schema'
p1679
I1486
sS'ms-DS-Tombstone-Quota-Factor'
p1680
I530
sS'ms-PKI-Cert-Template-OID'
p1681
I657
sS'ms-DS-Last-Known-RDN'
p1682
I491
sS'ms-WMI-ObjectEncoding'
p1683
I1727
sS'Subnet'
p1684
I1879
sS'msSFU-30-Master-Server-Name'
p1685
I1252
sS'Default-Group'
p1686
I155
sS'Trust-Partner'
p1687
I1168
sS'ms-DS-KrbTgt-Link-BL'
p1688
I583
sS'dhcp-Ranges'
p1689
I176
sS'Admin-Count'
p1690
I67
sS'msSFU-30-Search-Container'
p1691
I1245
sS'ms-DS-Az-Operation-ID'
p1692
I455
sS'GPC-User-Extension-Names'
p1693
I290
sS'MS-DS-Replicates-NC-Reason'
p1694
I557
sS'Assistant'
p1695
I82
sS'Signature-Algorithms'
p1696
I1115
sS'ACS-Minimum-Latency'
p1697
I40
sS'ms-TS-Remote-Control'
p1698
I1273
sS'departmentNumber'
p1699
I163
sS'MSMQ-Multicast-Address'
p1700
I804
sS'netboot-IntelliMirror-OSes'
p1701
I862
sS'File-Link-Tracking-Entry'
p1702
I1576
sS'Display-Name'
p1703
I185
sS'Additional-Information'
p1704
I57
sS'meetingStartTime'
p1705
I413
sS'MS-SQL-AllowAnonymousSubscription'
p1706
I719
sS'ms-DS-Has-Instantiated-NCs'
p1707
I481
sS'Is-Critical-System-Object'
p1708
I332
sS'dhcp-Classes'
p1709
I167
sS'ms-RADIUS-SavedFramedIpv6Route'
p1710
I687
sS'Trust-Attributes'
p1711
I1163
sS'dhcp-Properties'
p1712
I175
sS'Locality-Name'
p1713
I363
sS'ms-Kds-Prov-ServerConfiguration'
p1714
I1976
sS'ms-DS-Device'
p1715
I1996
sS'Search-Guide'
p1716
I1089
sS'Volume'
p1717
I1891
sS'User-SMIME-Certificate'
p1718
I1191
sS'FRS-Primary-Member'
p1719
I264
sS'ACS-Permission-Bits'
p1720
I48
sS'ms-DS-Claim-Source-Type'
p1721
I1381
sS'Mscope-Id'
p1722
I775
sS'Default-Security-Descriptor'
p1723
I160
sS'ms-RADIUS-SavedFramedIpv6Prefix'
p1724
I685
sS'ms-DS-Last-Successful-Interactive-Logon-Time'
p1725
I590
sS'MS-TS-LicenseVersion'
p1726
I1297
sS'Site-Object-BL'
p1727
I1120
sS'MS-SQL-Keywords'
p1728
I726
sS'ms-Kds-Prov-RootKey'
p1729
I1978
sS'GPC-WQL-Filter'
p1730
I291
sS'Token-Groups-Global-And-Universal'
p1731
I1051
sS'ms-DNS-Signing-Keys'
p1732
I1367
sS'UPN-Suffixes'
p1733
I1180
sS'Site'
p1734
I1869
sS'ms-PKI-Enterprise-Oid'
p1735
I1699
sS'Authentication-Options'
p1736
I94
sS'ACS-Non-Reserved-Tx-Limit'
p1737
I46
sS'ms-DNS-Parent-Has-Secure-Delegation'
p1738
I1369
s.